BL51 BANKED LINKER/LOCATER V6.00                                                        07/18/2017  19:52:09  PAGE 1


BL51 BANKED LINKER/LOCATER V6.00, INVOKED BY:
C:\KEIL_V5\C51\BIN\BL51.EXE .\absTask.obj, .\task.obj, .\setup.obj, .\mode.obj, .\Conf_tny.obj, .\PID.obj, .\FILTER.obj,
>>  .\DataScope_DP.obj, .\storage.obj, .\BUTTON.obj, .\LED.obj, .\MOTOR.obj, .\SERVO.obj, .\STEP_MOTOR.obj, .\RELAY.obj,
>>  .\ANGLE.obj, .\LCD1602.obj, .\74HC595.obj, .\fixedPulser.obj, .\ADC.obj, .\delay.obj, .\GPIO.obj, .\PCA.obj, .\stc15
>> _pwm.obj, .\timer.obj, .\USART1.obj, .\stc15_eeprom.obj TO 风板控制装置 RTX51TINY RAMSIZE (256)


MEMORY MODEL: LARGE WITH FLOATING POINT ARITHMETIC


INPUT MODULES INCLUDED:
  .\absTask.obj (ABSTASK)
  .\task.obj (TASK)
  .\setup.obj (SETUP)
  .\mode.obj (MODE)
  .\Conf_tny.obj (?RTX51_TINY_KERNAL)
  .\PID.obj (PID)
  .\FILTER.obj (FILTER)
  .\DataScope_DP.obj (DATASCOPE_DP)
  .\storage.obj (STORAGE)
  .\BUTTON.obj (BUTTON)
  .\LED.obj (LED)
  .\MOTOR.obj (MOTOR)
  .\SERVO.obj (SERVO)
  .\STEP_MOTOR.obj (STEP_MOTOR)
  .\RELAY.obj (RELAY)
  .\ANGLE.obj (ANGLE)
  .\LCD1602.obj (LCD1602)
  .\74HC595.obj (74HC595)
  .\fixedPulser.obj (FIXEDPULSER)
  .\ADC.obj (ADC)
  .\delay.obj (DELAY)
  .\GPIO.obj (GPIO)
  .\PCA.obj (PCA)
  .\stc15_pwm.obj (STC15_PWM)
  .\timer.obj (TIMER)
  .\USART1.obj (USART1)
  .\stc15_eeprom.obj (STC15_EEPROM)
  C:\KEIL_V5\C51\LIB\RTX51TNY.LIB (?RTX51_TINY_OS_CREATE)
  C:\KEIL_V5\C51\LIB\RTX51TNY.LIB (?RTX51_TINY_OS_DELETE)
  C:\KEIL_V5\C51\LIB\RTX51TNY.LIB (?RTX51_TINY_OS_WAIT)
  C:\KEIL_V5\C51\LIB\C51FPL.LIB (?C?FPADD)
  C:\KEIL_V5\C51\LIB\C51FPL.LIB (?C?FPMUL)
  C:\KEIL_V5\C51\LIB\C51FPL.LIB (?C?FPDIV)
  C:\KEIL_V5\C51\LIB\C51FPL.LIB (?C?FPCMP)
  C:\KEIL_V5\C51\LIB\C51FPL.LIB (?C?FCAST)
  C:\KEIL_V5\C51\LIB\C51FPL.LIB (?C?CASTF)
  C:\KEIL_V5\C51\LIB\C51FPL.LIB (?C?FPGETOPN)
  C:\KEIL_V5\C51\LIB\C51L.LIB (?C_STARTUP)
  C:\KEIL_V5\C51\LIB\C51L.LIB (?C?CLDPTR)
  C:\KEIL_V5\C51\LIB\C51L.LIB (?C?CLDOPTR)
  C:\KEIL_V5\C51\LIB\C51L.LIB (?C?CSTPTR)
  C:\KEIL_V5\C51\LIB\C51L.LIB (?C?CSTOPTR)
  C:\KEIL_V5\C51\LIB\C51L.LIB (?C?IMUL)
  C:\KEIL_V5\C51\LIB\C51L.LIB (?C?UIDIV)
  C:\KEIL_V5\C51\LIB\C51L.LIB (?C?IILDX)
  C:\KEIL_V5\C51\LIB\C51L.LIB (?C?ILDOPTR)
  C:\KEIL_V5\C51\LIB\C51L.LIB (?C?LMUL)
BL51 BANKED LINKER/LOCATER V6.00                                                      07/18/2017  19:52:09  PAGE 2


  C:\KEIL_V5\C51\LIB\C51L.LIB (?C?ULDIV)
  C:\KEIL_V5\C51\LIB\C51L.LIB (?C?SLDIV)
  C:\KEIL_V5\C51\LIB\C51L.LIB (?C?LNEG)
  C:\KEIL_V5\C51\LIB\C51L.LIB (?C?ULCMP)
  C:\KEIL_V5\C51\LIB\C51L.LIB (?C?ULSHR)
  C:\KEIL_V5\C51\LIB\C51L.LIB (?C?LLDOPTR0)
  C:\KEIL_V5\C51\LIB\C51L.LIB (?C?LLDIXDATA)
  C:\KEIL_V5\C51\LIB\C51L.LIB (?C?LSTXDATA)
  C:\KEIL_V5\C51\LIB\C51L.LIB (?C?LSTKXDATA)
  C:\KEIL_V5\C51\LIB\C51L.LIB (ABS)
  C:\KEIL_V5\C51\LIB\C51L.LIB (?C_INIT)
  C:\KEIL_V5\C51\LIB\C51L.LIB (?C?LLDIDATA0)
  C:\KEIL_V5\C51\LIB\C51L.LIB (?C?LLDXDATA0)
  C:\KEIL_V5\C51\LIB\C51L.LIB (?C?LLDPDATA0)
  C:\KEIL_V5\C51\LIB\C51L.LIB (?C?LLDCODE0)


TASK TABLE OF MODULE:  风板控制装置 (ABSTASK)

TASKID   PRIORITY   REG-BANK   SEGMENT NAME
-------------------------------------------
0        0          0          ?PR?TASK_INIT?ABSTASK
1        0          0          ?PR?TASK_BUTTON?ABSTASK
2        0          0          ?PR?TASK_ANGLE?ABSTASK
3        0          0          ?PR?TASK_MODE_1?ABSTASK
4        0          0          ?PR?TASK_MODE_2?ABSTASK
7        0          0          ?PR?DEBUG?ABSTASK



LINK MAP OF MODULE:  风板控制装置 (ABSTASK)


            TYPE    BASE      LENGTH    RELOCATION   SEGMENT NAME
            -----------------------------------------------------

            * * * * * * *   D A T A   M E M O R Y   * * * * * * *
            REG     0000H     0008H     ABSOLUTE     "REG BANK 0"
            DATA    0008H     0006H     ABSOLUTE     
            IDATA   000EH     0010H     UNIT         ?RTX?TASKSTATE?S
                    001EH     0002H                  *** GAP ***
            BIT     0020H.0   0000H.4   UNIT         ?BI?BUTTON
            BIT     0020H.4   0000H.3   UNIT         ?BI?MODE
            BIT     0020H.7   0000H.3   UNIT         ?BI?PCA
            BIT     0021H.2   0000H.2   UNIT         _BIT_GROUP_
            BIT     0021H.4   0000H.1   UNIT         ?RTX?BITS
            BIT     0021H.5   0000H.1   UNIT         ?BI?LED
            BIT     0021H.6   0000H.1   UNIT         ?BI?_SETPINSTATE?GPIO
                    0021H.7   0000H.1                *** GAP ***
            IDATA   0022H     0008H     UNIT         ?RTX?TASKSP?S
            IDATA   002AH     0001H     UNIT         ?STACK

            * * * * * * *  X D A T A   M E M O R Y  * * * * * * *
            XDATA   0000H     028CH     UNIT         ?XD?USART1
            XDATA   028CH     0072H     UNIT         ?XD?PID
            XDATA   02FEH     0060H     UNIT         _XDATA_GROUP_
            XDATA   035EH     004AH     UNIT         ?XD?SERVO
BL51 BANKED LINKER/LOCATER V6.00                                                      07/18/2017  19:52:09  PAGE 3


            XDATA   03A8H     003CH     UNIT         ?XD?STC15_PWM
            XDATA   03E4H     002AH     UNIT         ?XD?DATASCOPE_DP
            XDATA   040EH     0021H     UNIT         ?XD?_INIT_STR_MOTOR?SERVO
            XDATA   042FH     001FH     UNIT         ?XD?FIXEDPULSER
            XDATA   044EH     001CH     UNIT         ?XD?STEP_MOTOR
            XDATA   046AH     0016H     UNIT         ?XD?TIMER
            XDATA   0480H     0015H     UNIT         ?XD?PCA
            XDATA   0495H     0012H     UNIT         ?XD?PULSERINIT?FIXEDPULSER
            XDATA   04A7H     0011H     UNIT         ?XD?TIMERINIT?TIMER
            XDATA   04B8H     0009H     UNIT         ?XD?_SET_STR_ANGLE?SERVO
            XDATA   04C1H     0008H     UNIT         ?XD?_STEPMOTOR_INIT?STEP_MOTOR
            XDATA   04C9H     0008H     UNIT         ?XD?ANGLE
            XDATA   04D1H     0007H     UNIT         ?XD?_SETPULSE?FIXEDPULSER
            XDATA   04D8H     0007H     UNIT         ?XD?_EEPROM_READ_N?STC15_EEPROM
            XDATA   04DFH     0007H     UNIT         ?XD?_EEPROM_WRITE_N?STC15_EEPROM
            XDATA   04E6H     0006H     UNIT         ?XD?_SETSTEPMOTORWITHANGLE?STEP_MOTOR
            XDATA   04ECH     0005H     UNIT         ?XD?_PID_SETKI?PID
            XDATA   04F1H     0005H     UNIT         ?XD?_PID_SETKP?PID
            XDATA   04F6H     0005H     UNIT         ?XD?_PID_SETKD?PID
            XDATA   04FBH     0005H     UNIT         ?XD?_WRITEDATA?STORAGE
            XDATA   0500H     0004H     UNIT         ?XD?MOTOR
            XDATA   0504H     0004H     UNIT         ?XD?_HC595_INIT?74HC595
            XDATA   0508H     0003H     UNIT         ?XD?RELAY
            XDATA   050BH     0003H     UNIT         ?XD?_LCD1602_WRITE_WORD?LCD1602
            XDATA   050EH     0003H     UNIT         ?XD?_PCA_INIT?PCA
            XDATA   0511H     0003H     UNIT         ?XD?_PWMOUTPUT?PCA
            XDATA   0514H     0002H     UNIT         ?XD?BOARD_LED_INIT?LED
            XDATA   0516H     0001H     UNIT         ?XD?_BLINK?LED
            XDATA   0517H     0001H     UNIT         ?XD?_BOARD_LED_PWM?LED
            XDATA   0518H     0001H     UNIT         ?XD?_CLOSE_DC_MOTOR?MOTOR
            XDATA   0519H     0001H     UNIT         ?XD?_OPEN_STR?SERVO
            XDATA   051AH     0001H     UNIT         ?XD?_CLOSE_STR?SERVO
            XDATA   051BH     0001H     UNIT         ?XD?_SETSTEPMOTORWITHROUND?STEP_MOTOR
            XDATA   051CH     0001H     UNIT         ?XD?_SETSTEPMOTORDIVERSION?STEP_MOTOR
            XDATA   051DH     0001H     UNIT         ?XD?_CLOSE_STEPMOTOR?STEP_MOTOR
            XDATA   051EH     0001H     UNIT         ?XD?_OPEN_STEPMOTOR?STEP_MOTOR
            XDATA   051FH     0001H     UNIT         ?XD?_FREESTEPMOTOR?STEP_MOTOR
            XDATA   0520H     0001H     UNIT         ?XD?_LOCKSTEPMOTOR?STEP_MOTOR
            XDATA   0521H     0001H     UNIT         ?XD?_LCD1602_WRITE_CHAR?LCD1602
            XDATA   0522H     0001H     UNIT         ?XD?_LCD1602_WRITE_COM?LCD1602
            XDATA   0523H     0001H     UNIT         ?XD?_HC595SENDDATA?74HC595
            XDATA   0524H     0001H     UNIT         ?XD?_OPENPULSER?FIXEDPULSER
            XDATA   0525H     0001H     UNIT         ?XD?_CLOSEPULSER?FIXEDPULSER

            * * * * * * *   C O D E   M E M O R Y   * * * * * * *
            CODE    0000H     0003H     ABSOLUTE     
                    0003H     0008H                  *** GAP ***
            CODE    000BH     0003H     ABSOLUTE     
                    000EH     000DH                  *** GAP ***
            CODE    001BH     0003H     ABSOLUTE     
                    001EH     0005H                  *** GAP ***
            CODE    0023H     0003H     ABSOLUTE     
                    0026H     0005H                  *** GAP ***
            CODE    002BH     0003H     ABSOLUTE     
                    002EH     000DH                  *** GAP ***
            CODE    003BH     0003H     ABSOLUTE     
                    003EH     0005H                  *** GAP ***
BL51 BANKED LINKER/LOCATER V6.00                                                      07/18/2017  19:52:09  PAGE 4


            CODE    0043H     0003H     ABSOLUTE     
                    0046H     0045H                  *** GAP ***
            CODE    008BH     0003H     ABSOLUTE     
                    008EH     0005H                  *** GAP ***
            CODE    0093H     0003H     ABSOLUTE     
                    0096H     0005H                  *** GAP ***
            CODE    009BH     0003H     ABSOLUTE     
                    009EH     0005H                  *** GAP ***
            CODE    00A3H     0003H     ABSOLUTE     
                    00A6H     000DH                  *** GAP ***
            CODE    00B3H     0003H     ABSOLUTE     
                    00B6H     074AH                  *** GAP ***
            CODE    0800H     0720H     UNIT         ?C?LIB_CODE
            CODE    0F20H     06E0H     UNIT         ?PR?_USART_CONFIGURATION?USART1
            CODE    1600H     039AH     UNIT         ?PR?_PWM_INILIZE?STC15_PWM
            CODE    199AH     02EDH     UNIT         ?PR?_PID?PID
            CODE    1C87H     02E3H     UNIT         ?RTX?CODE
            CODE    1F6AH     0233H     UNIT         ?PR?_TIMER_INILIZE?TIMER
            CODE    219DH     01D4H     UNIT         ?PR?_INIT_STR_MOTOR?SERVO
            CODE    2371H     01C4H     UNIT         ?PR?_GPIO_INILIZE?GPIO
            CODE    2535H     019FH     UNIT         ?PR?_PCA_INIT?PCA
            CODE    26D4H     013DH     UNIT         ?PR?_PWMOUTPUT?PCA
            CODE    2811H     0136H     UNIT         ?PR?_FILTER?FILTER
            CODE    2947H     0134H     UNIT         ?PR?_DATASCOPE_GET_CHANNEL_DATA?DATASCOPE_DP
            CODE    2A7BH     0131H     UNIT         ?PR?_PID_CONFIG?PID
            CODE    2BACH     0116H     UNIT         ?PR?_SET_STR_ANGLE?SERVO
            CODE    2CC2H     010FH     UNIT         ?PR?_SET_PWM_DUTY?STC15_PWM
            CODE    2DD1H     00DBH     UNIT         ?PR?MODE1?MODE
            CODE    2EACH     00BAH     UNIT         ?PR?PWM_ROUTINE?FIXEDPULSER
            CODE    2F66H     00B1H     UNIT         ?CO?TIMER
            CODE    3017H     00AEH     UNIT         ?PR?_PWMN_UPDATE?PCA
            CODE    30C5H     00ACH     UNIT         ?PR?_SETBOARDWITHANGLE?TASK
            CODE    3171H     00AAH     UNIT         ?PR?_FLOAT2BYTE?DATASCOPE_DP
            CODE    321BH     00A9H     UNIT         ?PR?TIMERINIT?TIMER
            CODE    32C4H     00A7H     UNIT         ?PR?GETANGLE?ANGLE
            CODE    336BH     00A5H     UNIT         ?PR?_DATASCOPE_DATA_GENERATE?DATASCOPE_DP
            CODE    3410H     00A3H     UNIT         ?C_INITSEG
            CODE    34B3H     00A3H     UNIT         ?PR?PCA_HANDLER?PCA
            CODE    3556H     009EH     UNIT         ?PR?_SETSTEPMOTORWITHANGLE?STEP_MOTOR
            CODE    35F4H     009AH     UNIT         ?PR?_PWM_SET_T12_PERIOD?STC15_PWM
            CODE    368EH     008EH     UNIT         ?PR?_SETDC_MOTORSPEED?MOTOR
            CODE    371CH     008CH     UNIT         ?C_C51STARTUP
            CODE    37A8H     008AH     UNIT         ?PR?TIMER4_INT?TIMER
            CODE    3832H     0085H     UNIT         ?PR?UART2_INT?USART1
            CODE    38B7H     0085H     UNIT         ?PR?UART3_INT?USART1
            CODE    393CH     0085H     UNIT         ?PR?UART4_INT?USART1
            CODE    39C1H     007FH     UNIT         ?PR?UART1_INT?USART1
            CODE    3A40H     007BH     UNIT         ?PR?DC_MOTOR_CONFIG?MOTOR
            CODE    3ABBH     0069H     UNIT         ?PR?PULSERINIT?FIXEDPULSER
            CODE    3B24H     0061H     UNIT         ?PR?_SET_PWM_PERIOD?STC15_PWM
            CODE    3B85H     005FH     UNIT         ?PR?TASK_ANGLE?ABSTASK
            CODE    3BE4H     005EH     UNIT         ?PR?_GET_ADC10BITRESULT?ADC
            CODE    3C42H     0059H     UNIT         ?PR?SETUP?SETUP
            CODE    3C9BH     0058H     UNIT         ?PR?_SETPULSE?FIXEDPULSER
            CODE    3CF3H     0057H     UNIT         ?PR?BUTTONSCAN?BUTTON
            CODE    3D4AH     0054H     UNIT         ?PR?_STEPMOTOR_INIT?STEP_MOTOR
            CODE    3D9EH     0053H     UNIT         ?PR?_ADC_INILIZE?ADC
BL51 BANKED LINKER/LOCATER V6.00                                                      07/18/2017  19:52:09  PAGE 5


            CODE    3DF1H     0048H     UNIT         ?PR?TIMER3_INT?TIMER
            CODE    3E39H     0047H     UNIT         ?PR?TIMER1_ISR?TIMER
            CODE    3E80H     0044H     UNIT         ?C?LDIV
            CODE    3EC4H     003FH     UNIT         ?PR?_EEPROM_READ_N?STC15_EEPROM
            CODE    3F03H     003FH     UNIT         ?PR?_EEPROM_WRITE_N?STC15_EEPROM
            CODE    3F42H     0039H     UNIT         ?PR?_SENDSCOPEDATA?DATASCOPE_DP
            CODE    3F7BH     0035H     UNIT         ?PR?_UART1_INIT?SETUP
            CODE    3FB0H     002FH     UNIT         ?PR?_SETSTEPMOTORWITHROUND?STEP_MOTOR
            CODE    3FDFH     002FH     UNIT         ?PR?_LCD1602_WRITE_WORD?LCD1602
            CODE    400EH     0028H     UNIT         ?PR?BOARD_LED_INIT?LED
            CODE    4036H     0028H     UNIT         ?PR?_OPEN_PWM_N?STC15_PWM
            CODE    405EH     0028H     UNIT         ?PR?_TX2_WRITE2BUFF?USART1
            CODE    4086H     0028H     UNIT         ?PR?_TX3_WRITE2BUFF?USART1
            CODE    40AEH     0028H     UNIT         ?PR?_TX4_WRITE2BUFF?USART1
            CODE    40D6H     0027H     UNIT         ?CO?MODE
            CODE    40FDH     0027H     UNIT         ?PR?_TX1_WRITE2BUFF?USART1
            CODE    4124H     0025H     UNIT         ?PR?_CLOSE_PWM_N?STC15_PWM
            CODE    4149H     0025H     UNIT         ?PR?_SETTIMEOUT?TIMER
            CODE    416EH     0022H     UNIT         ?PR?_BLINK?LED
            CODE    4190H     0021H     UNIT         ?PR?_PID_SETPARAMETERINFERIORLIMIT?PID
            CODE    41B1H     0021H     UNIT         ?PR?_PID_SETPARAMETERUPPERLIMIT?PID
            CODE    41D2H     0021H     UNIT         ?PR?_PID_SETACTUALPARAMETER?PID
            CODE    41F3H     0021H     UNIT         ?PR?_PID_SETKI?PID
            CODE    4214H     0021H     UNIT         ?PR?_PID_SETKP?PID
            CODE    4235H     0021H     UNIT         ?PR?_PID_SETKD?PID
            CODE    4256H     0021H     UNIT         ?PR?_PID_SETTARGETPARAMETER?PID
            CODE    4277H     0020H     UNIT         ?CO?SETUP
            CODE    4297H     0020H     UNIT         ?PR?_OPEN_STR?SERVO
            CODE    42B7H     0020H     UNIT         ?PR?_OPENPULSER?FIXEDPULSER
            CODE    42D7H     0020H     UNIT         ?PR?_CLOSEPULSER?FIXEDPULSER
            CODE    42F7H     0020H     UNIT         ?PR?_RESTARTTIMER?TIMER
            CODE    4317H     0020H     UNIT         ?PR?_EEPROM_SECTORERASE?STC15_EEPROM
            CODE    4337H     001FH     UNIT         ?PR?BUTTON_CONFIG?BUTTON
            CODE    4356H     001FH     UNIT         ?PR?_CLOSE_STR?SERVO
            CODE    4375H     001FH     UNIT         ?PR?_ISEXPIREDTIMER?TIMER
            CODE    4394H     001FH     UNIT         ?PR?_ISSTOPPED?TIMER
            CODE    43B3H     001EH     UNIT         ?PR?LCD1602_GPIO_CONFIG?LCD1602
            CODE    43D1H     001DH     UNIT         ?PR?_GETBUTTONSTATE?BUTTON
            CODE    43EEH     001DH     UNIT         ?PR?_OPEN_STEPMOTOR?STEP_MOTOR
            CODE    440BH     001DH     UNIT         ?PR?LCD1602_INIT?LCD1602
            CODE    4428H     001DH     UNIT         ?PR?_ISACTIVETIMER?TIMER
            CODE    4445H     001CH     UNIT         ?PR?_CLOSE_STEPMOTOR?STEP_MOTOR
            CODE    4461H     001CH     UNIT         ?PR?_ADC_CONFIG?ANGLE
            CODE    447DH     001CH     UNIT         ?PR?_LCD1602_WRITE_CHAR?LCD1602
            CODE    4499H     001CH     UNIT         ?PR?_LCD1602_WRITE_COM?LCD1602
            CODE    44B5H     001CH     UNIT         ?PR?_SETTIMERHERTZ?TIMER
            CODE    44D1H     001BH     UNIT         ?PR?_OPEN_DC_MOTOR?MOTOR
            CODE    44ECH     001AH     UNIT         ?PR?DEBUG?ABSTASK
            CODE    4506H     001AH     UNIT         ?PR?_PID_GETPARAMETER?PID
            CODE    4520H     001AH     UNIT         ?PR?_PID_GETERR?PID
            CODE    453AH     001AH     UNIT         ?PR?_PID_GETERRLAST?PID
            CODE    4554H     001AH     UNIT         ?PR?_PID_GETKP?PID
            CODE    456EH     001AH     UNIT         ?PR?_PID_GETKI?PID
            CODE    4588H     001AH     UNIT         ?PR?_PID_GETKD?PID
            CODE    45A2H     001AH     UNIT         ?PR?_PID_GETOUTPUT?PID
            CODE    45BCH     001AH     UNIT         ?PR?_PID_GETINTEGRAL?PID
            CODE    45D6H     001AH     UNIT         ?PR?_CLOSE_DC_MOTOR?MOTOR
BL51 BANKED LINKER/LOCATER V6.00                                                      07/18/2017  19:52:09  PAGE 6


            CODE    45F0H     001AH     UNIT         ?PR?_READ_STR_ANGLE?SERVO
            CODE    460AH     001AH     UNIT         ?PR?_GET_PWM_PERIOD?STC15_PWM
            CODE    4624H     001AH     UNIT         ?PR?_GET_PWM_N_DUTY?STC15_PWM
            CODE    463EH     001AH     UNIT         ?PR?_GETTIMEROUT?TIMER
            CODE    4658H     001AH     UNIT         ?PR?_GETTIMERHERTZ?TIMER
            CODE    4672H     0019H     UNIT         ?PR?_HC595_INIT?74HC595
            CODE    468BH     0019H     UNIT         ?PR?_STOPTIMER?TIMER
            CODE    46A4H     0018H     UNIT         ?PR?_PWM_SET_PERIOD?STC15_PWM
            CODE    46BCH     0017H     UNIT         ?PR?_PRINTSTRING1?USART1
            CODE    46D3H     0013H     UNIT         ?PR?_PRINTSTRING2?USART1
            CODE    46E6H     0013H     UNIT         ?PR?_PRINTSTRING3?USART1
            CODE    46F9H     0013H     UNIT         ?PR?_PRINTSTRING4?USART1
            CODE    470CH     0012H     UNIT         ?PR?TASK_INIT?ABSTASK
            CODE    471EH     0012H     UNIT         ?PR?_OPENPID?PID
            CODE    4730H     0012H     UNIT         ?PR?_PID_GETSTATE?PID
            CODE    4742H     0012H     UNIT         ?PR?_WRITEDATA?STORAGE
            CODE    4754H     0012H     UNIT         ?PR?_GETPULSERSTATE?FIXEDPULSER
            CODE    4766H     0012H     UNIT         ?PR?_GET_PWM_N_STATE?STC15_PWM
            CODE    4778H     0011H     UNIT         ?PR?_CLOSEPID?PID
            CODE    4789H     0011H     UNIT         ?PR?_GETSTEPMOTORSTATE?STEP_MOTOR
            CODE    479AH     0011H     UNIT         ?PR?_HC595SENDDATA?74HC595
            CODE    47ABH     0011H     UNIT         ?PR?_SETPWM_DIV?STC15_PWM
            CODE    47BCH     0011H     UNIT         ?PR?_GETPWM_DIV?STC15_PWM
            CODE    47CDH     0010H     UNIT         ?RTX?TASKENT?S
            CODE    47DDH     0010H     UNIT         ?PR?_GETDC_MOTORSTATE?MOTOR
            CODE    47EDH     0010H     UNIT         ?PR?_DELAY_MS?DELAY
            CODE    47FDH     000FH     UNIT         ?PR?_SETRELAY?RELAY
            CODE    480CH     000EH     UNIT         ?PR?_UNSETRELAY?RELAY
            CODE    481AH     000EH     UNIT         ?PR?_ONRESTARTTIMER?TIMER
            CODE    4828H     000EH     UNIT         ?PR?DISABLEEEPROM?STC15_EEPROM
            CODE    4836H     000CH     UNIT         ?PR?_ADC_POWERCONTROL?ADC
            CODE    4842H     000CH     UNIT         ?PR?_ABS?ABS
            CODE    484EH     000AH     UNIT         ?PR?_DIGITALREAD?BUTTON
            CODE    4858H     000AH     UNIT         ?PR?OPEN_PWM_ALL?STC15_PWM
            CODE    4862H     000AH     UNIT         ?PR?CLOSE_PWM_ALL?STC15_PWM
            CODE    486CH     0009H     UNIT         ?PR?GETMICROS?TIMER
            CODE    4875H     0009H     UNIT         ?PR?GETMILLIS?TIMER
            CODE    487EH     0007H     UNIT         ?PR?_SETSTEPMOTORDIVERSION?STEP_MOTOR
            CODE    4885H     0007H     UNIT         ?PR?_FREESTEPMOTOR?STEP_MOTOR
            CODE    488CH     0007H     UNIT         ?PR?_LOCKSTEPMOTOR?STEP_MOTOR
            CODE    4893H     0006H     UNIT         ?PR?_BOARD_LED_PWM?LED
            CODE    4899H     0006H     UNIT         ?PR?GETSECONDS?TIMER
            CODE    489FH     0006H     UNIT         ?PR?GETMINUTES?TIMER
            CODE    48A5H     0006H     UNIT         ?PR?GETHOURS?TIMER
            CODE    48ABH     0006H     UNIT         ?PR?GETDAYS?TIMER
            CODE    48B1H     0005H     UNIT         ?PR?OPEN_BOARD_LED?LED
            CODE    48B6H     0005H     UNIT         ?PR?CLOSE_BOARD_LED?LED
            CODE    48BBH     0004H     UNIT         ?PR?ADC_INT?ADC
            CODE    48BFH     0003H     UNIT         ?PR?GETBOARD_LED_STATE?LED
            CODE    48C2H     0003H     UNIT         ?PR?_SETPINSTATE?GPIO
            CODE    48C5H     0001H     UNIT         ?PR?TASK_BUTTON?ABSTASK
            CODE    48C6H     0001H     UNIT         ?PR?TASK_MODE_1?ABSTASK
            CODE    48C7H     0001H     UNIT         ?PR?TASK_MODE_2?ABSTASK
            CODE    48C8H     0001H     UNIT         ?PR?MODE2?MODE
            CODE    48C9H     0001H     UNIT         ?PR?MODE3?MODE
            CODE    48CAH     0001H     UNIT         ?PR?MODE4?MODE
            CODE    48CBH     0001H     UNIT         ?PR?MODELAUNCHER?MODE
BL51 BANKED LINKER/LOCATER V6.00                                                      07/18/2017  19:52:09  PAGE 7


            CODE    48CCH     0001H     UNIT         ?PR?RELAY_INIT?RELAY



OVERLAY MAP OF MODULE:   风板控制装置 (ABSTASK)


SEGMENT                                             BIT_GROUP          XDATA_GROUP
  +--> CALLED SEGMENT                            START    LENGTH     START    LENGTH
------------------------------------------------------------------------------------
?PR?TASK_INIT?ABSTASK                            -----    -----      -----    -----
  +--> ?PR?SETUP?SETUP

?PR?SETUP?SETUP                                  -----    -----      -----    -----
  +--> ?PR?_UART1_INIT?SETUP
  +--> ?PR?BUTTON_CONFIG?BUTTON
  +--> ?PR?_ADC_CONFIG?ANGLE
  +--> ?PR?DC_MOTOR_CONFIG?MOTOR
  +--> ?PR?_PID_CONFIG?PID
  +--> ?PR?_PID_SETPARAMETERINFERIORLIMIT?PID
  +--> ?PR?_PID_SETPARAMETERUPPERLIMIT?PID

?PR?_UART1_INIT?SETUP                            -----    -----      02FEH    000DH
  +--> ?PR?_USART_CONFIGURATION?USART1
  +--> ?CO?SETUP
  +--> ?PR?_PRINTSTRING1?USART1

?PR?_USART_CONFIGURATION?USART1                  -----    -----      030BH    0009H

?PR?_PRINTSTRING1?USART1                         -----    -----      -----    -----
  +--> ?PR?_TX1_WRITE2BUFF?USART1

?PR?BUTTON_CONFIG?BUTTON                         -----    -----      02FEH    0002H
  +--> ?PR?_GPIO_INILIZE?GPIO

?PR?_ADC_CONFIG?ANGLE                            -----    -----      02FEH    0006H
  +--> ?PR?_ADC_INILIZE?ADC

?PR?DC_MOTOR_CONFIG?MOTOR                        -----    -----      02FEH    0012H
  +--> ?PR?_GPIO_INILIZE?GPIO
  +--> ?PR?_PWM_INILIZE?STC15_PWM
  +--> ?PR?_SET_PWM_PERIOD?STC15_PWM

?PR?_PWM_INILIZE?STC15_PWM                       -----    -----      0310H    0002H

?PR?_SET_PWM_PERIOD?STC15_PWM                    -----    -----      0310H    0002H
  +--> ?PR?_PWM_SET_PERIOD?STC15_PWM

?PR?_PID_CONFIG?PID                              -----    -----      02FEH    000DH

?PR?_PID_SETPARAMETERINFERIORLIMIT?PID           -----    -----      02FEH    0005H

?PR?_PID_SETPARAMETERUPPERLIMIT?PID              -----    -----      02FEH    0005H

*** NEW ROOT ***************************************************

?PR?TASK_ANGLE?ABSTASK                           -----    -----      -----    -----
BL51 BANKED LINKER/LOCATER V6.00                                                      07/18/2017  19:52:09  PAGE 8


  +--> ?PR?_OPENPID?PID
  +--> ?PR?_OPEN_DC_MOTOR?MOTOR
  +--> ?PR?_PID_SETTARGETPARAMETER?PID
  +--> ?PR?GETANGLE?ANGLE
  +--> ?PR?_PID_SETACTUALPARAMETER?PID
  +--> ?PR?_PID?PID
  +--> ?PR?_PID_GETPARAMETER?PID
  +--> ?PR?_PID_GETOUTPUT?PID
  +--> ?PR?_SETBOARDWITHANGLE?TASK

?PR?_OPEN_DC_MOTOR?MOTOR                         -----    -----      0314H    0001H
  +--> ?PR?_OPEN_PWM_N?STC15_PWM

?PR?_PID_SETTARGETPARAMETER?PID                  -----    -----      0314H    0005H

?PR?GETANGLE?ANGLE                               0021H.3  0000H.1    0339H    0015H
  +--> ?PR?_GET_ADC10BITRESULT?ADC
  +--> ?PR?_FILTER?FILTER

?PR?_FILTER?FILTER                               -----    -----      034EH    0010H

?PR?_PID_SETACTUALPARAMETER?PID                  -----    -----      0314H    0005H

?PR?_PID?PID                                     -----    -----      0314H    0001H
  +--> ?PR?_ABS?ABS

?PR?_SETBOARDWITHANGLE?TASK                      -----    -----      0314H    0004H
  +--> ?PR?_SETDC_MOTORSPEED?MOTOR

?PR?_SETDC_MOTORSPEED?MOTOR                      -----    -----      0318H    0005H
  +--> ?PR?_SET_PWM_DUTY?STC15_PWM

?PR?_SET_PWM_DUTY?STC15_PWM                      -----    -----      031DH    0005H
  +--> ?PR?_PWM_SET_T12_PERIOD?STC15_PWM

*** NEW ROOT ***************************************************

?PR?DEBUG?ABSTASK                                -----    -----      -----    -----
  +--> ?PR?GETANGLE?ANGLE
  +--> ?PR?_SENDSCOPEDATA?DATASCOPE_DP

?PR?_SENDSCOPEDATA?DATASCOPE_DP                  -----    -----      0339H    0006H
  +--> ?PR?_DATASCOPE_GET_CHANNEL_DATA?DATAS...
  +--> ?PR?_DATASCOPE_DATA_GENERATE?DATASCOP...
  +--> ?PR?_TX1_WRITE2BUFF?USART1

?PR?_DATASCOPE_GET_CHANNEL_DATA?DATAS...         -----    -----      033FH    0005H
  +--> ?PR?_FLOAT2BYTE?DATASCOPE_DP

?PR?_FLOAT2BYTE?DATASCOPE_DP                     -----    -----      0344H    000AH

*** NEW ROOT ***************************************************

?PR?PWM_ROUTINE?FIXEDPULSER                      -----    -----      -----    -----
  +--> ?PR?_CLOSE_PWM_N?STC15_PWM

*** NEW ROOT ***************************************************
BL51 BANKED LINKER/LOCATER V6.00                                                      07/18/2017  19:52:09  PAGE 9



?C_C51STARTUP                                    -----    -----      -----    -----
  +--> ?C_INITSEG



SYMBOL TABLE OF MODULE:  风板控制装置 (ABSTASK)

  VALUE           TYPE          NAME
  ----------------------------------

  -------         MODULE        ABSTASK
  C:0000H         SYMBOL        _ICE_DUMMY_
  D:0080H         PUBLIC        P0
  D:0090H         PUBLIC        P1
  D:00A0H         PUBLIC        P2
  D:00B0H         PUBLIC        P3
  D:00C0H         PUBLIC        P4
  D:00C8H         PUBLIC        P5
  D:00E8H         PUBLIC        P6
  D:00F8H         PUBLIC        P7
  C:470CH         PUBLIC        Task_Init
  C:48C6H         PUBLIC        Task_Mode_1
  D:00A8H         PUBLIC        IE
  C:48C7H         PUBLIC        Task_Mode_2
  D:00B8H         PUBLIC        IP
  D:00D8H         PUBLIC        CCON
  D:0098H         PUBLIC        SCON
  D:0088H         PUBLIC        TCON
  D:00F0H         PUBLIC        B
  D:00E0H         PUBLIC        ACC
  C:3B85H         PUBLIC        Task_Angle
  C:44ECH         PUBLIC        Debug
  C:48C5H         PUBLIC        Task_Button
  D:00D0H         PUBLIC        PSW
  -------         PROC          TASK_INIT
  C:470CH         LINE#         28
  C:470CH         LINE#         30
  C:470FH         LINE#         32
  C:4714H         LINE#         33
  C:4719H         LINE#         35
  -------         ENDPROC       TASK_INIT
  -------         PROC          TASK_BUTTON
  C:48C5H         LINE#         39
  C:48C5H         LINE#         62
  -------         ENDPROC       TASK_BUTTON
  -------         PROC          TASK_ANGLE
  C:3B85H         LINE#         64
  C:3B85H         LINE#         66
  C:3B8AH         LINE#         67
  C:3B8FH         LINE#         68
  C:3B94H         LINE#         69
  C:3BA3H         LINE#         70
  C:3BA3H         LINE#         71
  C:3BA3H         LINE#         73
  C:3BB3H         LINE#         75
  C:3BB3H         LINE#         76
BL51 BANKED LINKER/LOCATER V6.00                                                      07/18/2017  19:52:09  PAGE 10


  C:3BB8H         LINE#         77
  C:3BD8H         LINE#         79
  C:3BD8H         LINE#         80
  C:3BE2H         LINE#         82
  -------         ENDPROC       TASK_ANGLE
  -------         PROC          TASK_MODE_1
  C:48C6H         LINE#         85
  C:48C6H         LINE#         88
  -------         ENDPROC       TASK_MODE_1
  -------         PROC          TASK_MODE_2
  C:48C7H         LINE#         90
  C:48C7H         LINE#         93
  -------         ENDPROC       TASK_MODE_2
  -------         PROC          DEBUG
  C:44ECH         LINE#         94
  C:44ECH         LINE#         95
  C:44ECH         LINE#         96
  C:44ECH         LINE#         97
  C:44FAH         LINE#         98
  C:4504H         LINE#         100
  -------         ENDPROC       DEBUG
  -------         ENDMOD        ABSTASK

  -------         MODULE        TASK
  C:0000H         SYMBOL        _ICE_DUMMY_
  D:0080H         PUBLIC        P0
  D:0090H         PUBLIC        P1
  D:00A0H         PUBLIC        P2
  D:00B0H         PUBLIC        P3
  D:00C0H         PUBLIC        P4
  D:00C8H         PUBLIC        P5
  D:00E8H         PUBLIC        P6
  D:00F8H         PUBLIC        P7
  D:00A8H         PUBLIC        IE
  D:00B8H         PUBLIC        IP
  D:00D8H         PUBLIC        CCON
  D:0098H         PUBLIC        SCON
  D:0088H         PUBLIC        TCON
  D:00F0H         PUBLIC        B
  C:30C5H         PUBLIC        _setBoardWithAngle
  D:00E0H         PUBLIC        ACC
  D:00D0H         PUBLIC        PSW
  -------         PROC          _SETBOARDWITHANGLE
  X:0314H         SYMBOL        angle
  C:30C5H         LINE#         4
  C:30CBH         LINE#         5
  C:30CBH         LINE#         7
  C:30E6H         LINE#         8
  C:30E6H         LINE#         9
  C:30F0H         LINE#         13
  C:30F0H         LINE#         14
  C:310DH         LINE#         15
  C:310DH         LINE#         16
  C:3117H         LINE#         20
  C:3117H         LINE#         21
  C:313AH         LINE#         22
  C:316FH         LINE#         23
BL51 BANKED LINKER/LOCATER V6.00                                                      07/18/2017  19:52:09  PAGE 11


  C:3170H         LINE#         24
  -------         ENDPROC       _SETBOARDWITHANGLE
  -------         ENDMOD        TASK

  -------         MODULE        SETUP
  C:0000H         SYMBOL        _ICE_DUMMY_
  D:0080H         PUBLIC        P0
  D:0090H         PUBLIC        P1
  D:00A0H         PUBLIC        P2
  D:00B0H         PUBLIC        P3
  D:00C0H         PUBLIC        P4
  D:00C8H         PUBLIC        P5
  D:00E8H         PUBLIC        P6
  C:3F7BH         PUBLIC        _UART1_init
  D:00F8H         PUBLIC        P7
  D:00A8H         PUBLIC        IE
  D:00B8H         PUBLIC        IP
  D:00D8H         PUBLIC        CCON
  D:0098H         PUBLIC        SCON
  C:3C42H         PUBLIC        setup
  D:0088H         PUBLIC        TCON
  D:00F0H         PUBLIC        B
  D:00E0H         PUBLIC        ACC
  D:00D0H         PUBLIC        PSW
  -------         PROC          _UART1_INIT
  D:0004H         SYMBOL        BandRate
  -------         DO            
  X:02FEH         SYMBOL        COMx_InitStructure
  -------         ENDDO         
  C:3F7BH         LINE#         42
  C:3F7BH         LINE#         43
  C:3F7BH         LINE#         45
  C:3F81H         LINE#         46
  C:3F85H         LINE#         47
  C:3F89H         LINE#         48
  C:3F8FH         LINE#         49
  C:3F92H         LINE#         50
  C:3F95H         LINE#         51
  C:3F97H         LINE#         52
  C:3F9AH         LINE#         53
  C:3F9CH         LINE#         54
  C:3FA7H         LINE#         55
  -------         ENDPROC       _UART1_INIT
  -------         PROC          SETUP
  C:3C42H         LINE#         58
  C:3C42H         LINE#         59
  C:3C42H         LINE#         61
  C:3C4DH         LINE#         64
  C:3C50H         LINE#         65
  C:3C57H         LINE#         66
  C:3C5AH         LINE#         68
  C:3C7DH         LINE#         69
  C:3C8CH         LINE#         70
  -------         ENDPROC       SETUP
  -------         ENDMOD        SETUP

  -------         MODULE        MODE
BL51 BANKED LINKER/LOCATER V6.00                                                      07/18/2017  19:52:09  PAGE 12


  C:0000H         SYMBOL        _ICE_DUMMY_
  D:0080H         PUBLIC        P0
  D:0090H         PUBLIC        P1
  D:00A0H         PUBLIC        P2
  D:00B0H         PUBLIC        P3
  D:00C0H         PUBLIC        P4
  D:00C8H         PUBLIC        P5
  D:00E8H         PUBLIC        P6
  D:00F8H         PUBLIC        P7
  D:00A8H         PUBLIC        IE
  D:00B8H         PUBLIC        IP
  D:00D8H         PUBLIC        CCON
  D:0098H         PUBLIC        SCON
  D:0088H         PUBLIC        TCON
  D:00F0H         PUBLIC        B
  D:00E0H         PUBLIC        ACC
  C:2DD1H         PUBLIC        mode1
  C:48C8H         PUBLIC        mode2
  C:48C9H         PUBLIC        mode3
  C:48CAH         PUBLIC        mode4
  C:48CBH         PUBLIC        modeLauncher
  D:00D0H         PUBLIC        PSW
  -------         PROC          MODE1
  -------         DO            
  B:0020H.4       SYMBOL        step1
  B:0020H.5       SYMBOL        step2
  B:0020H.6       SYMBOL        step3
  -------         ENDDO         
  C:2DD1H         LINE#         6
  C:2DD1H         LINE#         7
  C:2DD1H         LINE#         12
  C:2DD4H         LINE#         13
  C:2DD4H         LINE#         15
  C:2DD7H         LINE#         16
  C:2DD7H         LINE#         17
  C:2DDAH         LINE#         18
  C:2DDAH         LINE#         21
  C:2DDCH         LINE#         22
  C:2DDEH         LINE#         23
  C:2DE0H         LINE#         25
  C:2DE1H         LINE#         27
  C:2DE1H         LINE#         28
  C:2DE6H         LINE#         29
  C:2DEBH         LINE#         31
  C:2DEDH         LINE#         32
  C:2DF3H         LINE#         34
  C:2DF3H         LINE#         36
  C:2DF6H         LINE#         38
  C:2DF6H         LINE#         39
  C:2DFFH         LINE#         41
  C:2E06H         LINE#         42
  C:2E06H         LINE#         44
  C:2E15H         LINE#         45
  C:2E24H         LINE#         46
  C:2E29H         LINE#         47
  C:2E2EH         LINE#         48
  C:2E30H         LINE#         49
BL51 BANKED LINKER/LOCATER V6.00                                                      07/18/2017  19:52:09  PAGE 13


  C:2E36H         LINE#         50
  C:2E38H         LINE#         52
  C:2E38H         LINE#         54
  C:2E3FH         LINE#         55
  C:2E3FH         LINE#         56
  C:2E3FH         LINE#         58
  C:2E3FH         LINE#         59
  C:2E3FH         LINE#         62
  C:2E3FH         LINE#         63
  C:2E41H         LINE#         65
  C:2E41H         LINE#         66
  C:2E50H         LINE#         67
  C:2E59H         LINE#         68
  C:2E5EH         LINE#         69
  C:2E63H         LINE#         70
  C:2E68H         LINE#         71
  C:2E88H         LINE#         72
  C:2E88H         LINE#         74
  C:2E8FH         LINE#         75
  C:2E8FH         LINE#         76
  C:2E94H         LINE#         77
  C:2E96H         LINE#         78
  C:2E9FH         LINE#         79
  C:2E9FH         LINE#         81
  C:2E9FH         LINE#         83
  C:2EA6H         LINE#         84
  C:2EA6H         LINE#         85
  C:2EABH         LINE#         87
  C:2EABH         LINE#         88
  C:2EABH         LINE#         90
  C:2EABH         LINE#         91
  C:2EABH         LINE#         93
  -------         ENDPROC       MODE1
  -------         PROC          MODE2
  C:48C8H         LINE#         95
  C:48C8H         LINE#         96
  C:48C8H         LINE#         98
  -------         ENDPROC       MODE2
  -------         PROC          MODE3
  C:48C9H         LINE#         101
  C:48C9H         LINE#         102
  C:48C9H         LINE#         104
  -------         ENDPROC       MODE3
  -------         PROC          MODE4
  C:48CAH         LINE#         106
  C:48CAH         LINE#         107
  C:48CAH         LINE#         109
  -------         ENDPROC       MODE4
  -------         PROC          MODELAUNCHER
  C:48CBH         LINE#         110
  C:48CBH         LINE#         111
  C:48CBH         LINE#         113
  -------         ENDPROC       MODELAUNCHER
  -------         ENDMOD        MODE

  -------         MODULE        ?RTX51_TINY_KERNAL
  C:47CDH         SEGMENT       ?RTX?TASKENT?S
BL51 BANKED LINKER/LOCATER V6.00                                                      07/18/2017  19:52:09  PAGE 14


  I:0022H         SEGMENT       ?RTX?TASKSP?S
  I:000EH         SEGMENT       ?RTX?TASKSTATE?S
  B:0021H.4       SEGMENT       ?RTX?BITS
  C:1C87H         SEGMENT       ?RTX?CODE
  C:1CD6H         PUBLIC        ?RTX?SET_ISR
  D:000CH         PUBLIC        ?RTX_CURRENTTASK
  D:0007H         PUBLIC        ?RTX_NEXTID
  C:1D19H         PUBLIC        ?RTX_NEXTTASK
  N:00FFH         PUBLIC        ?RTX_RAMTOP
  C:47CDH         PUBLIC        ?RTX_TASKENTRY
  C:1DF8H         PUBLIC        ?RTX_TASKIDX
  I:0022H         PUBLIC        ?RTX_TASKSP
  I:000EH         PUBLIC        ?RTX_TASKSTATUS
  C:1DBCH         PUBLIC        MAIN
  C:1D02H         PUBLIC        OS_SWITCH_TASK
  C:1D0BH         SYMBOL        ?C0001
  C:1D15H         SYMBOL        ?C0003
  C:1D1AH         SYMBOL        ?C0005
  C:1D34H         SYMBOL        ?C0007
  C:1D36H         SYMBOL        ?C0009
  C:1D40H         SYMBOL        ?C0011
  C:1D6DH         SYMBOL        ?C0012
  C:1D53H         SYMBOL        ?C0013
  C:1D58H         SYMBOL        ?C0015
  C:1D63H         SYMBOL        ?C0016
  N:0000H         SYMBOL        ?RTX51_TINY_KERNAL
  N:F736H         SYMBOL        ?RTX_CLOCK
  N:0008H         SYMBOL        ?RTX_REGISTERBANK
  D:000DH         SYMBOL        ?RTX_ROBINTIME
  D:000AH         SYMBOL        ?RTX_SAVEACC
  D:000BH         SYMBOL        ?RTX_SAVEPSW
  C:1C87H         SYMBOL        ?RTX_STACKERROR
  C:1CDAH         SYMBOL        ?RTX_TASKSWITCHING
  B:0021H.4       SYMBOL        ?RTX_TS_DELAY
  D:00E0H         SYMBOL        ACC
  D:00F0H         SYMBOL        B
  N:0005H         SYMBOL        B_ACTIVE
  N:0007H         SYMBOL        B_IVL
  N:0007H         SYMBOL        B_RDY
  N:0004H         SYMBOL        B_READY
  N:0006H         SYMBOL        B_ROBIN
  N:0002H         SYMBOL        B_SIGNAL
  N:0003H         SYMBOL        B_TIMEOUT
  N:0000H         SYMBOL        B_WAITSIG
  N:0001H         SYMBOL        B_WAITTIM
  C:1CD7H         SYMBOL        CHECKROBINTIME
  C:1CB1H         SYMBOL        CHECKSTACK
  N:0000H         SYMBOL        CODE_BANKING
  N:0000H         SYMBOL        CPU_IDLE_CODE
  D:0083H         SYMBOL        DPH
  D:0082H         SYMBOL        DPL
  B:00A8H.7       SYMBOL        EA
  B:00A8H.4       SYMBOL        ES
  B:00A8H.1       SYMBOL        ET0
  B:00A8H.3       SYMBOL        ET1
  B:00A8H.0       SYMBOL        EX0
  B:00A8H.2       SYMBOL        EX1
BL51 BANKED LINKER/LOCATER V6.00                                                      07/18/2017  19:52:09  PAGE 15


  N:0014H         SYMBOL        FREE_STACK
  C:1C8BH         SYMBOL        HW_TIMER
  D:00A8H         SYMBOL        IE
  B:0088H.1       SYMBOL        IE0
  B:0088H.3       SYMBOL        IE1
  N:08CAH         SYMBOL        INT_CLOCK
  N:0001H         SYMBOL        INT_REGBANK
  B:0088H.0       SYMBOL        IT0
  B:0088H.2       SYMBOL        IT1
  N:0020H         SYMBOL        K_ACTIVE
  N:0080H         SYMBOL        K_IVL
  N:0080H         SYMBOL        K_RDY
  N:0010H         SYMBOL        K_READY
  N:0040H         SYMBOL        K_ROBIN
  N:0001H         SYMBOL        K_SIG
  N:0002H         SYMBOL        K_TMO
  N:0000H         SYMBOL        LONG_USR_INTR
  C:1DC5H         SYMBOL        MAIN1
  C:1DCFH         SYMBOL        MAIN1X
  C:1DCAH         SYMBOL        MAIN2
  C:1D90H         SYMBOL        NOEVENT
  C:1CD6H         SYMBOL        NOROBINTIMEOUT
  C:1CCDH         SYMBOL        NOTIMEOUT
  C:1CCBH         SYMBOL        NOWAITTIMEOUT
  C:1D02H         SYMBOL        OS_SWITCH_TASK1
  D:0087H         SYMBOL        PCON
  D:00D0H         SYMBOL        PSW
  N:00FFH         SYMBOL        RAMTOP
  N:0080H         SYMBOL        RDY_EVENT
  C:1D9CH         SYMBOL        ROBINON
  C:1D84H         SYMBOL        SIGNALOFF
  C:1D90H         SYMBOL        SIGNALON
  N:0004H         SYMBOL        SIG_EVENT
  D:0081H         SYMBOL        SP
  I:000FH         SYMBOL        TASKSTATE
  D:0088H         SYMBOL        TCON
  B:0088H.5       SYMBOL        TF0
  B:0088H.7       SYMBOL        TF1
  D:008CH         SYMBOL        TH0
  D:008DH         SYMBOL        TH1
  C:1D8CH         SYMBOL        TIMEOUTON
  C:1C8CH         SYMBOL        TIMERINT
  C:1CBDH         SYMBOL        TIMERLOOP
  I:000EH         SYMBOL        TIMERVAL
  N:000AH         SYMBOL        TIMESHARING
  D:008AH         SYMBOL        TL0
  D:008BH         SYMBOL        TL1
  D:0089H         SYMBOL        TMOD
  N:0008H         SYMBOL        TMO_EVENT
  B:0088H.4       SYMBOL        TR0
  B:0088H.6       SYMBOL        TR1
  C:000BH         LINE#         271
  C:1C87H         LINE#         279
  C:1C8BH         LINE#         282
  C:1C8CH         LINE#         299
  C:1C8FH         LINE#         301
  C:1C92H         LINE#         302
BL51 BANKED LINKER/LOCATER V6.00                                                      07/18/2017  19:52:09  PAGE 16


  C:1C95H         LINE#         303
  C:1C97H         LINE#         305
  C:1C99H         LINE#         306
  C:1C9BH         LINE#         307
  C:1C9DH         LINE#         308
  C:1C9FH         LINE#         309
  C:1CA1H         LINE#         310
  C:1CA3H         LINE#         311
  C:1CA5H         LINE#         312
  C:1CA7H         LINE#         316
  C:1CA8H         LINE#         317
  C:1CAAH         LINE#         318
  C:1CABH         LINE#         319
  C:1CACH         LINE#         320
  C:1CAFH         LINE#         321
  C:1CB1H         LINE#         322
  C:1CB2H         LINE#         323
  C:1CB4H         LINE#         324
  C:1CB7H         LINE#         325
  C:1CB9H         LINE#         329
  C:1CBBH         LINE#         330
  C:1CBDH         LINE#         331
  C:1CBEH         LINE#         332
  C:1CBFH         LINE#         333
  C:1CC0H         LINE#         334
  C:1CC2H         LINE#         335
  C:1CC4H         LINE#         336
  C:1CC5H         LINE#         337
  C:1CC8H         LINE#         338
  C:1CCAH         LINE#         339
  C:1CCBH         LINE#         340
  C:1CCDH         LINE#         341
  C:1CCEH         LINE#         342
  C:1CD0H         LINE#         344
  C:1CD1H         LINE#         345
  C:1CD3H         LINE#         360
  C:1CD6H         LINE#         366
  C:1CD7H         LINE#         367
  C:1CDAH         LINE#         370
  C:1CDCH         LINE#         371
  C:1CDEH         LINE#         372
  C:1CE0H         LINE#         373
  C:1CE2H         LINE#         374
  C:1CE4H         LINE#         375
  C:1CE6H         LINE#         376
  C:1CE8H         LINE#         377
  C:1CEAH         LINE#         378
  C:1CECH         LINE#         379
  C:1CEEH         LINE#         380
  C:1CF0H         LINE#         381
  C:1CF2H         LINE#         382
  C:1CF4H         LINE#         387
  C:1CF6H         LINE#         388
  C:1CF7H         LINE#         389
  C:1CF9H         LINE#         390
  C:1CFAH         LINE#         391
  C:1CFCH         LINE#         392
BL51 BANKED LINKER/LOCATER V6.00                                                      07/18/2017  19:52:09  PAGE 17


  C:1CFEH         LINE#         393
  C:1CFFH         LINE#         394
  C:1D00H         LINE#         395
  C:1D02H         LINE#         424
  C:1D04H         LINE#         426
  C:1D06H         LINE#         427
  C:1D07H         LINE#         429
  C:1D08H         LINE#         430
  C:1D0AH         LINE#         431
  C:1D0BH         LINE#         434
  C:1D0CH         LINE#         435
  C:1D0DH         LINE#         436
  C:1D0EH         LINE#         444
  C:1D11H         LINE#         445
  C:1D13H         LINE#         446
  C:1D15H         LINE#         449
  C:1D16H         LINE#         450
  C:1D19H         LINE#         458
  C:1D1AH         LINE#         462
  C:1D1CH         LINE#         463
  C:1D1DH         LINE#         464
  C:1D1EH         LINE#         465
  C:1D20H         LINE#         468
  C:1D22H         LINE#         470
  C:1D24H         LINE#         471
  C:1D26H         LINE#         472
  C:1D27H         LINE#         473
  C:1D28H         LINE#         474
  C:1D29H         LINE#         476
  C:1D2BH         LINE#         478
  C:1D2CH         LINE#         479
  C:1D2DH         LINE#         480
  C:1D2FH         LINE#         481
  C:1D32H         LINE#         482
  C:1D34H         LINE#         484
  C:1D35H         LINE#         485
  C:1D36H         LINE#         490
  C:1D37H         LINE#         491
  C:1D38H         LINE#         492
  C:1D3AH         LINE#         496
  C:1D3BH         LINE#         497
  C:1D3CH         LINE#         498
  C:1D3EH         LINE#         499
  C:1D40H         LINE#         505
  C:1D42H         LINE#         506
  C:1D43H         LINE#         507
  C:1D44H         LINE#         508
  C:1D46H         LINE#         510
  C:1D48H         LINE#         511
  C:1D4AH         LINE#         512
  C:1D4BH         LINE#         513
  C:1D4CH         LINE#         516
  C:1D4EH         LINE#         517
  C:1D51H         LINE#         518
  C:1D53H         LINE#         520
  C:1D54H         LINE#         522
  C:1D55H         LINE#         523
BL51 BANKED LINKER/LOCATER V6.00                                                      07/18/2017  19:52:09  PAGE 18


  C:1D56H         LINE#         524
  C:1D57H         LINE#         525
  C:1D58H         LINE#         529
  C:1D5AH         LINE#         530
  C:1D5BH         LINE#         531
  C:1D5DH         LINE#         535
  C:1D5FH         LINE#         536
  C:1D60H         LINE#         537
  C:1D61H         LINE#         539
  C:1D63H         LINE#         543
  C:1D65H         LINE#         544
  C:1D67H         LINE#         545
  C:1D68H         LINE#         546
  C:1D69H         LINE#         548
  C:1D6BH         LINE#         549
  C:1D6DH         LINE#         555
  C:1D70H         LINE#         559
  C:1D72H         LINE#         560
  C:1D73H         LINE#         561
  C:1D75H         LINE#         562
  C:1D76H         LINE#         563
  C:1D78H         LINE#         564
  C:1D7AH         LINE#         565
  C:1D7BH         LINE#         567
  C:1D7EH         LINE#         571
  C:1D81H         LINE#         572
  C:1D84H         LINE#         576
  C:1D86H         LINE#         577
  C:1D89H         LINE#         578
  C:1D8CH         LINE#         580
  C:1D8EH         LINE#         581
  C:1D90H         LINE#         583
  C:1D92H         LINE#         584
  C:1D93H         LINE#         585
  C:1D95H         LINE#         587
  C:1D97H         LINE#         588
  C:1D99H         LINE#         594
  C:1D9BH         LINE#         595
  C:1D9CH         LINE#         608
  C:1D9DH         LINE#         609
  C:1D9FH         LINE#         614
  C:1DA1H         LINE#         615
  C:1DA3H         LINE#         616
  C:1DA5H         LINE#         617
  C:1DA7H         LINE#         618
  C:1DA9H         LINE#         619
  C:1DABH         LINE#         620
  C:1DADH         LINE#         621
  C:1DAFH         LINE#         622
  C:1DB1H         LINE#         623
  C:1DB3H         LINE#         624
  C:1DB5H         LINE#         625
  C:1DB7H         LINE#         626
  C:1DB9H         LINE#         627
  C:1DBBH         LINE#         628
  C:1DBCH         LINE#         642
  C:1DBEH         LINE#         643
BL51 BANKED LINKER/LOCATER V6.00                                                      07/18/2017  19:52:09  PAGE 19


  C:1DC0H         LINE#         644
  C:1DC2H         LINE#         645
  C:1DC4H         LINE#         646
  C:1DC5H         LINE#         647
  C:1DC6H         LINE#         648
  C:1DC8H         LINE#         649
  C:1DCAH         LINE#         650
  C:1DCCH         LINE#         651
  C:1DCDH         LINE#         652
  C:1DCFH         LINE#         653
  C:1DD0H         LINE#         654
  C:1DD1H         LINE#         655
  C:1DD2H         LINE#         656
  C:1DD3H         LINE#         657
  C:1DD5H         LINE#         658
  C:1DD7H         LINE#         659
  C:1DD9H         LINE#         660
  C:1DDCH         LINE#         661
  C:1DDEH         LINE#         662
  C:1DDFH         LINE#         663
  C:1DE1H         LINE#         664
  C:1DE2H         LINE#         665
  C:1DE3H         LINE#         666
  C:1DE5H         LINE#         668
  C:1DE8H         LINE#         670
  C:1DEBH         LINE#         671
  C:1DEEH         LINE#         672
  C:1DF1H         LINE#         673
  C:1DF3H         LINE#         674
  C:1DF5H         LINE#         675
  C:1DF7H         LINE#         676
  -------         ENDMOD        ?RTX51_TINY_KERNAL

  -------         MODULE        PID
  C:0000H         SYMBOL        _ICE_DUMMY_
  D:0080H         PUBLIC        P0
  D:0090H         PUBLIC        P1
  D:00A0H         PUBLIC        P2
  D:00B0H         PUBLIC        P3
  D:00C0H         PUBLIC        P4
  C:4730H         PUBLIC        _PID_getState
  D:00C8H         PUBLIC        P5
  D:00E8H         PUBLIC        P6
  D:00F8H         PUBLIC        P7
  D:00A8H         PUBLIC        IE
  C:41D2H         PUBLIC        _PID_setActualParameter
  C:471EH         PUBLIC        _openPID
  C:45A2H         PUBLIC        _PID_getOutput
  D:00B8H         PUBLIC        IP
  C:4256H         PUBLIC        _PID_setTargetParameter
  D:00D8H         PUBLIC        CCON
  C:4506H         PUBLIC        _PID_getParameter
  C:4520H         PUBLIC        _PID_getErr
  C:4588H         PUBLIC        _PID_getKd
  D:0098H         PUBLIC        SCON
  C:456EH         PUBLIC        _PID_getKi
  D:0088H         PUBLIC        TCON
BL51 BANKED LINKER/LOCATER V6.00                                                      07/18/2017  19:52:09  PAGE 20


  C:2A7BH         PUBLIC        _PID_config
  C:45BCH         PUBLIC        _PID_getIntegral
  C:4554H         PUBLIC        _PID_getKp
  C:4235H         PUBLIC        _PID_setKd
  C:41F3H         PUBLIC        _PID_setKi
  D:00F0H         PUBLIC        B
  C:453AH         PUBLIC        _PID_getErrLast
  C:41B1H         PUBLIC        _PID_setParameterUpperLimit
  D:00E0H         PUBLIC        ACC
  C:4214H         PUBLIC        _PID_setKp
  C:199AH         PUBLIC        _PID
  X:028CH         SYMBOL        g_pid_n_info
  C:4778H         PUBLIC        _closePID
  D:00D0H         PUBLIC        PSW
  C:4190H         PUBLIC        _PID_setParameterInferiorLimit
  -------         PROC          _PID_CONFIG
  D:0003H         SYMBOL        PID_N
  X:02FFH         SYMBOL        kp
  X:0303H         SYMBOL        ki
  X:0307H         SYMBOL        kd
  C:2A7BH         LINE#         49
  C:2A7DH         LINE#         50
  C:2A7DH         LINE#         51
  C:2A92H         LINE#         52
  C:2AA7H         LINE#         53
  C:2ABCH         LINE#         54
  C:2AD1H         LINE#         55
  C:2AF0H         LINE#         56
  C:2B0FH         LINE#         57
  C:2B2EH         LINE#         58
  C:2B58H         LINE#         59
  C:2B82H         LINE#         60
  -------         ENDPROC       _PID_CONFIG
  -------         PROC          _OPENPID
  D:0007H         SYMBOL        PID_N
  C:471EH         LINE#         70
  C:471EH         LINE#         71
  C:471EH         LINE#         72
  C:472FH         LINE#         74
  -------         ENDPROC       _OPENPID
  -------         PROC          _CLOSEPID
  D:0007H         SYMBOL        PID_N
  C:4778H         LINE#         83
  C:4778H         LINE#         84
  C:4778H         LINE#         85
  C:4788H         LINE#         88
  -------         ENDPROC       _CLOSEPID
  -------         PROC          _PID
  X:0314H         SYMBOL        PID_N
  C:199AH         LINE#         97
  C:199FH         LINE#         98
  C:199FH         LINE#         102
  C:19EAH         LINE#         104
  C:1A25H         LINE#         105
  C:1A25H         LINE#         106
  C:1A50H         LINE#         107
  C:1A96H         LINE#         108
BL51 BANKED LINKER/LOCATER V6.00                                                      07/18/2017  19:52:09  PAGE 21


  C:1AD1H         LINE#         109
  C:1AF0H         LINE#         110
  C:1AF2H         LINE#         112
  C:1AF2H         LINE#         113
  C:1B08H         LINE#         114
  C:1B1DH         LINE#         115
  C:1B56H         LINE#         116
  C:1B56H         LINE#         121
  C:1C5BH         LINE#         124
  C:1C85H         LINE#         127
  C:1C86H         LINE#         129
  -------         ENDPROC       _PID
  -------         PROC          _PID_SETPARAMETERINFERIORLIMIT
  D:0003H         SYMBOL        PID_N
  X:02FFH         SYMBOL        value
  C:4190H         LINE#         139
  C:4192H         LINE#         140
  C:4192H         LINE#         141
  -------         ENDPROC       _PID_SETPARAMETERINFERIORLIMIT
  -------         PROC          _PID_SETPARAMETERUPPERLIMIT
  D:0003H         SYMBOL        PID_N
  X:02FFH         SYMBOL        value
  C:41B1H         LINE#         153
  C:41B3H         LINE#         154
  C:41B3H         LINE#         155
  -------         ENDPROC       _PID_SETPARAMETERUPPERLIMIT
  -------         PROC          _PID_SETACTUALPARAMETER
  D:0003H         SYMBOL        PID_N
  X:0315H         SYMBOL        value
  C:41D2H         LINE#         168
  C:41D4H         LINE#         169
  C:41D4H         LINE#         170
  -------         ENDPROC       _PID_SETACTUALPARAMETER
  -------         PROC          _PID_SETKI
  D:0003H         SYMBOL        PID_N
  X:04EDH         SYMBOL        value
  C:41F3H         LINE#         183
  C:41F5H         LINE#         184
  C:41F5H         LINE#         185
  -------         ENDPROC       _PID_SETKI
  -------         PROC          _PID_SETKP
  D:0003H         SYMBOL        PID_N
  X:04F2H         SYMBOL        value
  C:4214H         LINE#         197
  C:4216H         LINE#         198
  C:4216H         LINE#         199
  -------         ENDPROC       _PID_SETKP
  -------         PROC          _PID_SETKD
  D:0003H         SYMBOL        PID_N
  X:04F7H         SYMBOL        value
  C:4235H         LINE#         211
  C:4237H         LINE#         212
  C:4237H         LINE#         213
  -------         ENDPROC       _PID_SETKD
  -------         PROC          _PID_SETTARGETPARAMETER
  D:0003H         SYMBOL        PID_N
  X:0315H         SYMBOL        value
BL51 BANKED LINKER/LOCATER V6.00                                                      07/18/2017  19:52:09  PAGE 22


  C:4256H         LINE#         225
  C:4258H         LINE#         226
  C:4258H         LINE#         227
  -------         ENDPROC       _PID_SETTARGETPARAMETER
  -------         PROC          _PID_GETPARAMETER
  D:0007H         SYMBOL        PID_N
  C:4506H         LINE#         239
  C:4506H         LINE#         240
  C:4506H         LINE#         241
  C:451FH         LINE#         242
  -------         ENDPROC       _PID_GETPARAMETER
  -------         PROC          _PID_GETERR
  D:0007H         SYMBOL        PID_N
  C:4520H         LINE#         252
  C:4520H         LINE#         253
  C:4520H         LINE#         254
  C:4539H         LINE#         255
  -------         ENDPROC       _PID_GETERR
  -------         PROC          _PID_GETERRLAST
  D:0007H         SYMBOL        PID_N
  C:453AH         LINE#         265
  C:453AH         LINE#         266
  C:453AH         LINE#         267
  C:4553H         LINE#         268
  -------         ENDPROC       _PID_GETERRLAST
  -------         PROC          _PID_GETKP
  D:0007H         SYMBOL        PID_N
  C:4554H         LINE#         277
  C:4554H         LINE#         278
  C:4554H         LINE#         279
  C:456DH         LINE#         280
  -------         ENDPROC       _PID_GETKP
  -------         PROC          _PID_GETKI
  D:0007H         SYMBOL        PID_N
  C:456EH         LINE#         290
  C:456EH         LINE#         291
  C:456EH         LINE#         292
  C:4587H         LINE#         293
  -------         ENDPROC       _PID_GETKI
  -------         PROC          _PID_GETKD
  D:0007H         SYMBOL        PID_N
  C:4588H         LINE#         303
  C:4588H         LINE#         304
  C:4588H         LINE#         305
  C:45A1H         LINE#         306
  -------         ENDPROC       _PID_GETKD
  -------         PROC          _PID_GETOUTPUT
  D:0007H         SYMBOL        PID_N
  C:45A2H         LINE#         316
  C:45A2H         LINE#         317
  C:45A2H         LINE#         318
  C:45BBH         LINE#         319
  -------         ENDPROC       _PID_GETOUTPUT
  -------         PROC          _PID_GETINTEGRAL
  D:0007H         SYMBOL        PID_N
  C:45BCH         LINE#         329
  C:45BCH         LINE#         330
BL51 BANKED LINKER/LOCATER V6.00                                                      07/18/2017  19:52:09  PAGE 23


  C:45BCH         LINE#         331
  C:45D5H         LINE#         332
  -------         ENDPROC       _PID_GETINTEGRAL
  -------         PROC          _PID_GETSTATE
  D:0007H         SYMBOL        PID_N
  C:4730H         LINE#         333
  C:4730H         LINE#         334
  C:4730H         LINE#         335
  C:4741H         LINE#         336
  -------         ENDPROC       _PID_GETSTATE
  -------         ENDMOD        PID

  -------         MODULE        FILTER
  C:0000H         SYMBOL        _ICE_DUMMY_
  D:0080H         PUBLIC        P0
  D:0090H         PUBLIC        P1
  D:00A0H         PUBLIC        P2
  D:00B0H         PUBLIC        P3
  D:00C0H         PUBLIC        P4
  D:00C8H         PUBLIC        P5
  D:00E8H         PUBLIC        P6
  D:00F8H         PUBLIC        P7
  C:2811H         PUBLIC        _filter
  D:00A8H         PUBLIC        IE
  D:00B8H         PUBLIC        IP
  D:00D8H         PUBLIC        CCON
  D:0098H         PUBLIC        SCON
  D:0088H         PUBLIC        TCON
  D:00F0H         PUBLIC        B
  D:00E0H         PUBLIC        ACC
  D:00D0H         PUBLIC        PSW
  -------         PROC          _FILTER
  D:0001H         SYMBOL        ary
  X:0351H         SYMBOL        num
  X:0352H         SYMBOL        MaxValue
  X:0354H         SYMBOL        MinValue
  -------         DO            
  X:0356H         SYMBOL        angleDataloopTemp2
  X:0358H         SYMBOL        finalData
  X:035AH         SYMBOL        maxValue
  X:035CH         SYMBOL        minValue
  -------         ENDDO         
  C:2811H         LINE#         2
  C:2816H         LINE#         3
  C:2816H         LINE#         5
  C:281DH         LINE#         6
  C:282CH         LINE#         7
  C:283BH         LINE#         8
  C:285DH         LINE#         9
  C:285DH         LINE#         10
  C:2879H         LINE#         11
  C:2879H         LINE#         12
  C:2896H         LINE#         13
  C:2896H         LINE#         14
  C:28B8H         LINE#         15
  C:28B8H         LINE#         16
  C:28D5H         LINE#         17
BL51 BANKED LINKER/LOCATER V6.00                                                      07/18/2017  19:52:09  PAGE 24


  C:28D5H         LINE#         18
  C:28F7H         LINE#         19
  C:290BH         LINE#         20
  C:2930H         LINE#         21
  C:2946H         LINE#         22
  C:2946H         LINE#         23
  -------         ENDPROC       _FILTER
  -------         ENDMOD        FILTER

  -------         MODULE        DATASCOPE_DP
  C:0000H         SYMBOL        _ICE_DUMMY_
  D:0080H         PUBLIC        P0
  D:0090H         PUBLIC        P1
  D:00A0H         PUBLIC        P2
  D:00B0H         PUBLIC        P3
  D:00C0H         PUBLIC        P4
  D:00C8H         PUBLIC        P5
  D:00E8H         PUBLIC        P6
  D:00F8H         PUBLIC        P7
  X:03E4H         PUBLIC        DataScope_OutPut_Buffer
  D:00A8H         PUBLIC        IE
  D:00B8H         PUBLIC        IP
  D:00D8H         PUBLIC        CCON
  C:3F42H         PUBLIC        _sendScopeData
  D:0098H         PUBLIC        SCON
  D:0088H         PUBLIC        TCON
  D:00F0H         PUBLIC        B
  C:3171H         PUBLIC        _Float2Byte
  D:00E0H         PUBLIC        ACC
  C:336BH         PUBLIC        _DataScope_Data_Generate
  C:2947H         PUBLIC        _DataScope_Get_Channel_Data
  D:00D0H         PUBLIC        PSW
  -------         PROC          _FLOAT2BYTE
  D:0001H         SYMBOL        target
  X:0347H         SYMBOL        buf
  X:034AH         SYMBOL        beg
  -------         DO            
  X:034BH         SYMBOL        point
  -------         ENDDO         
  C:3171H         LINE#         26
  C:3171H         LINE#         27
  C:3171H         LINE#         29
  C:317CH         LINE#         30
  C:319AH         LINE#         31
  C:31C6H         LINE#         32
  C:31F2H         LINE#         33
  -------         ENDPROC       _FLOAT2BYTE
  -------         PROC          _SENDSCOPEDATA
  D:0004H         SYMBOL        Data
  X:033DH         SYMBOL        channel
  -------         DO            
  X:033EH         SYMBOL        a
  -------         ENDDO         
  C:3F42H         LINE#         43
  C:3F42H         LINE#         44
  C:3F42H         LINE#         47
  C:3F4DH         LINE#         49
BL51 BANKED LINKER/LOCATER V6.00                                                      07/18/2017  19:52:09  PAGE 25


  C:3F63H         LINE#         50
  C:3F63H         LINE#         51
  C:3F72H         LINE#         52
  C:3F7AH         LINE#         54
  -------         ENDPROC       _SENDSCOPEDATA
  -------         PROC          _DATASCOPE_GET_CHANNEL_DATA
  X:033FH         SYMBOL        Data
  X:0343H         SYMBOL        Channel
  C:2947H         LINE#         60
  C:294DH         LINE#         61
  C:294DH         LINE#         62
  C:2960H         LINE#         63
  C:2960H         LINE#         65
  C:2960H         LINE#         67
  C:2960H         LINE#         68
  C:2996H         LINE#         69
  C:2996H         LINE#         70
  C:2996H         LINE#         71
  C:29A9H         LINE#         72
  C:29ACH         LINE#         73
  C:29ACH         LINE#         74
  C:29C0H         LINE#         75
  C:29C3H         LINE#         76
  C:29C3H         LINE#         77
  C:29D7H         LINE#         78
  C:29DAH         LINE#         79
  C:29DAH         LINE#         80
  C:29EEH         LINE#         81
  C:29F1H         LINE#         82
  C:29F1H         LINE#         83
  C:2A05H         LINE#         84
  C:2A07H         LINE#         85
  C:2A07H         LINE#         86
  C:2A1BH         LINE#         87
  C:2A1DH         LINE#         88
  C:2A1DH         LINE#         89
  C:2A31H         LINE#         90
  C:2A33H         LINE#         91
  C:2A33H         LINE#         92
  C:2A47H         LINE#         93
  C:2A49H         LINE#         94
  C:2A49H         LINE#         95
  C:2A5DH         LINE#         96
  C:2A5FH         LINE#         97
  C:2A5FH         LINE#         98
  C:2A7AH         LINE#         99
  C:2A7AH         LINE#         100
  C:2A7AH         LINE#         101
  C:2A7AH         LINE#         102
  -------         ENDPROC       _DATASCOPE_GET_CHANNEL_DATA
  -------         PROC          _DATASCOPE_DATA_GENERATE
  D:0007H         SYMBOL        Channel_Number
  C:336BH         LINE#         107
  C:336BH         LINE#         108
  C:336BH         LINE#         109
  C:3374H         LINE#         110
  C:3374H         LINE#         111
BL51 BANKED LINKER/LOCATER V6.00                                                      07/18/2017  19:52:09  PAGE 26


  C:3377H         LINE#         112
  C:3377H         LINE#         114
  C:3377H         LINE#         115
  C:337DH         LINE#         116
  C:33B3H         LINE#         117
  C:33B3H         LINE#         118
  C:33B3H         LINE#         119
  C:33B9H         LINE#         120
  C:33BCH         LINE#         121
  C:33BCH         LINE#         122
  C:33BCH         LINE#         123
  C:33C2H         LINE#         124
  C:33C5H         LINE#         125
  C:33C5H         LINE#         126
  C:33C5H         LINE#         127
  C:33CBH         LINE#         128
  C:33CEH         LINE#         129
  C:33CEH         LINE#         130
  C:33CEH         LINE#         131
  C:33D4H         LINE#         132
  C:33D7H         LINE#         133
  C:33D7H         LINE#         134
  C:33D7H         LINE#         135
  C:33DDH         LINE#         136
  C:33E0H         LINE#         137
  C:33E0H         LINE#         138
  C:33E0H         LINE#         139
  C:33E6H         LINE#         140
  C:33E9H         LINE#         141
  C:33E9H         LINE#         142
  C:33E9H         LINE#         143
  C:33EFH         LINE#         144
  C:33F2H         LINE#         145
  C:33F2H         LINE#         146
  C:33F2H         LINE#         147
  C:33F8H         LINE#         148
  C:33FBH         LINE#         149
  C:33FBH         LINE#         150
  C:33FBH         LINE#         151
  C:3401H         LINE#         152
  C:3404H         LINE#         153
  C:3404H         LINE#         154
  C:3404H         LINE#         155
  C:340AH         LINE#         156
  C:340DH         LINE#         157
  C:340DH         LINE#         158
  C:340DH         LINE#         159
  C:340DH         LINE#         160
  C:340FH         LINE#         161
  -------         ENDPROC       _DATASCOPE_DATA_GENERATE
  -------         ENDMOD        DATASCOPE_DP

  -------         MODULE        STORAGE
  C:0000H         SYMBOL        _ICE_DUMMY_
  D:0080H         PUBLIC        P0
  D:0090H         PUBLIC        P1
  D:00A0H         PUBLIC        P2
BL51 BANKED LINKER/LOCATER V6.00                                                      07/18/2017  19:52:09  PAGE 27


  D:00B0H         PUBLIC        P3
  D:00C0H         PUBLIC        P4
  D:00C8H         PUBLIC        P5
  D:00E8H         PUBLIC        P6
  D:00F8H         PUBLIC        P7
  D:00A8H         PUBLIC        IE
  D:00B8H         PUBLIC        IP
  D:00D8H         PUBLIC        CCON
  C:4742H         PUBLIC        _writeData
  D:0098H         PUBLIC        SCON
  D:0088H         PUBLIC        TCON
  D:00F0H         PUBLIC        B
  D:00E0H         PUBLIC        ACC
  D:00D0H         PUBLIC        PSW
  -------         PROC          _WRITEDATA
  X:04FBH         SYMBOL        add
  X:04FDH         SYMBOL        Data
  C:4742H         LINE#         3
  C:4753H         LINE#         4
  C:4753H         LINE#         6
  -------         ENDPROC       _WRITEDATA
  -------         ENDMOD        STORAGE

  -------         MODULE        BUTTON
  C:0000H         SYMBOL        _ICE_DUMMY_
  D:0080H         PUBLIC        P0
  D:0090H         PUBLIC        P1
  D:00A0H         PUBLIC        P2
  D:00B0H         PUBLIC        P3
  D:00C0H         PUBLIC        P4
  D:00C8H         PUBLIC        P5
  D:00E8H         PUBLIC        P6
  D:00F8H         PUBLIC        P7
  D:00A8H         PUBLIC        IE
  D:00B8H         PUBLIC        IP
  D:00D8H         PUBLIC        CCON
  C:3CF3H         PUBLIC        buttonScan
  B:0020H.0       SYMBOL        BUTTON1_bit
  B:0020H.1       SYMBOL        BUTTON2_bit
  B:0020H.2       SYMBOL        BUTTON3_bit
  B:0020H.3       SYMBOL        BUTTON4_bit
  D:0098H         PUBLIC        SCON
  B:00A0H.3       PUBLIC        P23
  D:0088H         PUBLIC        TCON
  B:00A0H.4       PUBLIC        P24
  B:00A0H.5       PUBLIC        P25
  B:00A0H.6       PUBLIC        P26
  D:00F0H         PUBLIC        B
  C:43D1H         PUBLIC        _getButtonState
  D:00E0H         PUBLIC        ACC
  C:4337H         PUBLIC        Button_config
  C:484EH         SYMBOL        _digitalRead
  D:00D0H         PUBLIC        PSW
  -------         PROC          BUTTON_CONFIG
  -------         DO            
  X:02FEH         SYMBOL        GPIO_InitStructure
  -------         ENDDO         
BL51 BANKED LINKER/LOCATER V6.00                                                      07/18/2017  19:52:09  PAGE 28


  C:4337H         LINE#         25
  C:4337H         LINE#         26
  C:4337H         LINE#         28
  C:433DH         LINE#         29
  C:4342H         LINE#         30
  C:434DH         LINE#         31
  C:434FH         LINE#         32
  C:4351H         LINE#         33
  C:4353H         LINE#         34
  C:4355H         LINE#         35
  -------         ENDPROC       BUTTON_CONFIG
  -------         PROC          _DIGITALREAD
  D:0006H         SYMBOL        pin
  C:484EH         LINE#         43
  C:484EH         LINE#         44
  C:484EH         LINE#         45
  C:4852H         LINE#         46
  C:4852H         LINE#         47
  C:4857H         LINE#         48
  C:4857H         LINE#         49
  -------         ENDPROC       _DIGITALREAD
  -------         PROC          _GETBUTTONSTATE
  D:0007H         SYMBOL        BUTTON_data
  C:43D1H         LINE#         61
  C:43D1H         LINE#         62
  C:43D1H         LINE#         63
  C:43E2H         LINE#         64
  C:43E2H         LINE#         65
  C:43E2H         LINE#         66
  C:43E5H         LINE#         67
  C:43E5H         LINE#         68
  C:43E5H         LINE#         69
  C:43E8H         LINE#         70
  C:43E8H         LINE#         71
  C:43E8H         LINE#         72
  C:43EBH         LINE#         73
  C:43EBH         LINE#         74
  C:43EBH         LINE#         75
  C:43EDH         LINE#         76
  C:43EDH         LINE#         77
  C:43EDH         LINE#         78
  -------         ENDPROC       _GETBUTTONSTATE
  -------         PROC          BUTTONSCAN
  C:3CF3H         LINE#         88
  C:3CF3H         LINE#         89
  C:3CF3H         LINE#         90
  C:3CFEH         LINE#         91
  C:3CFEH         LINE#         92
  C:3D08H         LINE#         93
  C:3D08H         LINE#         97
  C:3D0AH         LINE#         98
  C:3D0AH         LINE#         99
  C:3D0CH         LINE#         101
  C:3D0CH         LINE#         102
  C:3D0EH         LINE#         103
  C:3D0EH         LINE#         104
  C:3D19H         LINE#         105
BL51 BANKED LINKER/LOCATER V6.00                                                      07/18/2017  19:52:09  PAGE 29


  C:3D19H         LINE#         106
  C:3D1CH         LINE#         107
  C:3D1CH         LINE#         111
  C:3D1EH         LINE#         112
  C:3D1EH         LINE#         113
  C:3D20H         LINE#         115
  C:3D20H         LINE#         116
  C:3D22H         LINE#         117
  C:3D22H         LINE#         118
  C:3D2DH         LINE#         119
  C:3D2DH         LINE#         120
  C:3D30H         LINE#         121
  C:3D30H         LINE#         125
  C:3D32H         LINE#         127
  C:3D32H         LINE#         128
  C:3D34H         LINE#         130
  C:3D34H         LINE#         131
  C:3D36H         LINE#         132
  C:3D36H         LINE#         133
  C:3D41H         LINE#         134
  C:3D41H         LINE#         135
  C:3D44H         LINE#         136
  C:3D44H         LINE#         140
  C:3D46H         LINE#         142
  C:3D46H         LINE#         143
  C:3D47H         LINE#         145
  C:3D47H         LINE#         146
  C:3D49H         LINE#         147
  C:3D49H         LINE#         148
  -------         ENDPROC       BUTTONSCAN
  -------         ENDMOD        BUTTON

  -------         MODULE        LED
  C:0000H         SYMBOL        _ICE_DUMMY_
  D:0080H         PUBLIC        P0
  D:0090H         PUBLIC        P1
  D:00A0H         PUBLIC        P2
  D:00B0H         PUBLIC        P3
  D:00C0H         PUBLIC        P4
  D:00C8H         PUBLIC        P5
  B:0021H.5       SYMBOL        Board_LED_State
  D:00E8H         PUBLIC        P6
  D:00F8H         PUBLIC        P7
  D:00A8H         PUBLIC        IE
  C:416EH         PUBLIC        _blink
  C:400EH         PUBLIC        Board_LED_Init
  D:00B8H         PUBLIC        IP
  C:48B6H         PUBLIC        close_Board_LED
  D:00D8H         PUBLIC        CCON
  D:0098H         PUBLIC        SCON
  D:0088H         PUBLIC        TCON
  C:48B1H         PUBLIC        open_Board_LED
  B:00C8H.5       PUBLIC        P55
  D:00F0H         PUBLIC        B
  D:00E0H         PUBLIC        ACC
  C:48BFH         PUBLIC        getBoard_LED_State
  C:4893H         PUBLIC        _Board_LED_PWM
BL51 BANKED LINKER/LOCATER V6.00                                                      07/18/2017  19:52:09  PAGE 30


  D:00D0H         PUBLIC        PSW
  -------         PROC          BOARD_LED_INIT
  -------         DO            
  X:0514H         SYMBOL        GPIO_InitStructure
  -------         ENDDO         
  C:400EH         LINE#         8
  C:400EH         LINE#         9
  C:400EH         LINE#         11
  C:4014H         LINE#         12
  C:4019H         LINE#         13
  C:4024H         LINE#         14
  C:4027H         LINE#         15
  C:402CH         LINE#         16
  C:402FH         LINE#         17
  C:4034H         LINE#         18
  C:4035H         LINE#         19
  -------         ENDPROC       BOARD_LED_INIT
  -------         PROC          OPEN_BOARD_LED
  C:48B1H         LINE#         20
  C:48B1H         LINE#         21
  C:48B1H         LINE#         22
  C:48B3H         LINE#         23
  C:48B5H         LINE#         24
  -------         ENDPROC       OPEN_BOARD_LED
  -------         PROC          CLOSE_BOARD_LED
  C:48B6H         LINE#         25
  C:48B6H         LINE#         26
  C:48B6H         LINE#         27
  C:48B8H         LINE#         28
  C:48BAH         LINE#         30
  -------         ENDPROC       CLOSE_BOARD_LED
  -------         PROC          _BLINK
  X:0516H         SYMBOL        time
  C:416EH         LINE#         31
  C:4173H         LINE#         32
  C:4173H         LINE#         33
  C:417DH         LINE#         34
  C:417DH         LINE#         35
  C:4180H         LINE#         36
  C:4185H         LINE#         37
  C:4188H         LINE#         38
  C:418DH         LINE#         40
  C:418FH         LINE#         41
  -------         ENDPROC       _BLINK
  -------         PROC          GETBOARD_LED_STATE
  C:48BFH         LINE#         42
  C:48BFH         LINE#         43
  C:48BFH         LINE#         44
  C:48C1H         LINE#         45
  -------         ENDPROC       GETBOARD_LED_STATE
  -------         PROC          _BOARD_LED_PWM
  X:0517H         SYMBOL        luminance
  C:4893H         LINE#         46
  C:4898H         LINE#         47
  C:4898H         LINE#         48
  C:4898H         LINE#         49
  C:4898H         LINE#         52
BL51 BANKED LINKER/LOCATER V6.00                                                      07/18/2017  19:52:09  PAGE 31


  C:4898H         LINE#         54
  -------         ENDPROC       _BOARD_LED_PWM
  -------         ENDMOD        LED

  -------         MODULE        MOTOR
  C:0000H         SYMBOL        _ICE_DUMMY_
  D:0080H         PUBLIC        P0
  D:0090H         PUBLIC        P1
  D:00A0H         PUBLIC        P2
  D:00B0H         PUBLIC        P3
  D:00C0H         PUBLIC        P4
  D:00C8H         PUBLIC        P5
  D:00E8H         PUBLIC        P6
  D:00F8H         PUBLIC        P7
  D:00BAH         PUBLIC        P_SW2
  D:00A8H         PUBLIC        IE
  C:44D1H         PUBLIC        _open_DC_Motor
  D:00B8H         PUBLIC        IP
  D:00D8H         PUBLIC        CCON
  B:00A0H.1       PUBLIC        P21
  D:0098H         PUBLIC        SCON
  D:0088H         PUBLIC        TCON
  B:00B0H.7       PUBLIC        P37
  C:368EH         PUBLIC        _setDC_MotorSpeed
  D:00F0H         PUBLIC        B
  X:0500H         SYMBOL        g_DC_Motor
  C:47DDH         PUBLIC        _getDC_MotorState
  D:00E0H         PUBLIC        ACC
  C:3A40H         PUBLIC        DC_MOTOR_config
  C:45D6H         PUBLIC        _close_DC_Motor
  D:00D0H         PUBLIC        PSW
  -------         PROC          _SETDC_MOTORSPEED
  X:0318H         SYMBOL        motor
  X:0319H         SYMBOL        speed
  C:368EH         LINE#         38
  C:3693H         LINE#         39
  C:3693H         LINE#         41
  C:36AEH         LINE#         42
  C:36AEH         LINE#         43
  C:36B8H         LINE#         44
  C:36B8H         LINE#         45
  C:36D3H         LINE#         46
  C:36D3H         LINE#         48
  C:36DDH         LINE#         49
  C:36DDH         LINE#         52
  C:36F9H         LINE#         53
  C:371BH         LINE#         54
  -------         ENDPROC       _SETDC_MOTORSPEED
  -------         PROC          _OPEN_DC_MOTOR
  X:0314H         SYMBOL        motor
  C:44D1H         LINE#         55
  C:44D6H         LINE#         56
  C:44D6H         LINE#         57
  C:44D9H         LINE#         58
  C:44EBH         LINE#         59
  -------         ENDPROC       _OPEN_DC_MOTOR
  -------         PROC          _CLOSE_DC_MOTOR
BL51 BANKED LINKER/LOCATER V6.00                                                      07/18/2017  19:52:09  PAGE 32


  X:0518H         SYMBOL        motor
  C:45D6H         LINE#         60
  C:45DBH         LINE#         61
  C:45DBH         LINE#         62
  C:45DEH         LINE#         63
  C:45EFH         LINE#         67
  -------         ENDPROC       _CLOSE_DC_MOTOR
  -------         PROC          _GETDC_MOTORSTATE
  D:0007H         SYMBOL        motor
  C:47DDH         LINE#         68
  C:47DDH         LINE#         69
  C:47DDH         LINE#         70
  C:47ECH         LINE#         72
  -------         ENDPROC       _GETDC_MOTORSTATE
  -------         PROC          DC_MOTOR_CONFIG
  -------         DO            
  X:02FEH         SYMBOL        GPIO_InitStructure
  X:0300H         SYMBOL        PWM_InitStructure
  -------         ENDDO         
  C:3A40H         LINE#         80
  C:3A40H         LINE#         81
  C:3A40H         LINE#         85
  C:3A45H         LINE#         88
  C:3A49H         LINE#         89
  C:3A54H         LINE#         93
  C:3A5AH         LINE#         94
  C:3A64H         LINE#         95
  C:3A66H         LINE#         96
  C:3A68H         LINE#         99
  C:3A6BH         LINE#         100
  C:3A70H         LINE#         101
  C:3A72H         LINE#         102
  C:3A74H         LINE#         103
  C:3A77H         LINE#         104
  C:3A7AH         LINE#         105
  C:3A7CH         LINE#         106
  C:3A7EH         LINE#         107
  C:3A80H         LINE#         108
  C:3A82H         LINE#         109
  C:3A84H         LINE#         110
  C:3A86H         LINE#         111
  C:3A88H         LINE#         112
  C:3A8AH         LINE#         113
  C:3A8CH         LINE#         114
  C:3A8EH         LINE#         115
  C:3A90H         LINE#         116
  C:3A9AH         LINE#         117
  C:3AA5H         LINE#         118
  C:3AAEH         LINE#         119
  C:3AB7H         LINE#         120
  C:3ABAH         LINE#         123
  -------         ENDPROC       DC_MOTOR_CONFIG
  -------         ENDMOD        MOTOR

  -------         MODULE        SERVO
  C:0000H         SYMBOL        _ICE_DUMMY_
  D:0080H         PUBLIC        P0
BL51 BANKED LINKER/LOCATER V6.00                                                      07/18/2017  19:52:09  PAGE 33


  D:0090H         PUBLIC        P1
  D:00A0H         PUBLIC        P2
  D:00B0H         PUBLIC        P3
  D:00C0H         PUBLIC        P4
  D:00C8H         PUBLIC        P5
  D:00E8H         PUBLIC        P6
  D:00F8H         PUBLIC        P7
  D:00BAH         PUBLIC        P_SW2
  D:00A8H         PUBLIC        IE
  C:4297H         PUBLIC        _open_STR
  C:2BACH         PUBLIC        _set_STR_angle
  D:00B8H         PUBLIC        IP
  D:00D8H         PUBLIC        CCON
  C:219DH         PUBLIC        _Init_Str_Motor
  D:0098H         PUBLIC        SCON
  D:0088H         PUBLIC        TCON
  B:00B0H.7       PUBLIC        P37
  D:00F0H         PUBLIC        B
  D:00E0H         PUBLIC        ACC
  C:45F0H         PUBLIC        _read_STR_angle
  X:035EH         SYMBOL        str_motor
  C:4356H         PUBLIC        _close_STR
  D:00D0H         PUBLIC        PSW
  -------         PROC          _INIT_STR_MOTOR
  X:040EH         SYMBOL        MOTOR
  X:040FH         SYMBOL        pl
  X:0413H         SYMBOL        ph
  X:0417H         SYMBOL        ma
  X:041BH         SYMBOL        n
  -------         DO            
  X:041DH         SYMBOL        GPIO_InitStructure
  X:041FH         SYMBOL        PWM_InitStructure
  -------         ENDDO         
  C:219DH         LINE#         43
  C:21A2H         LINE#         44
  C:21A2H         LINE#         47
  C:21A7H         LINE#         48
  C:21ABH         LINE#         49
  C:21B6H         LINE#         54
  C:21B8H         LINE#         56
  C:21BBH         LINE#         57
  C:21C0H         LINE#         58
  C:21C2H         LINE#         59
  C:21C4H         LINE#         60
  C:21C7H         LINE#         61
  C:21CAH         LINE#         62
  C:21CCH         LINE#         63
  C:21CEH         LINE#         64
  C:21D0H         LINE#         65
  C:21D2H         LINE#         66
  C:21D4H         LINE#         67
  C:21D8H         LINE#         68
  C:21DBH         LINE#         69
  C:21DDH         LINE#         70
  C:21DFH         LINE#         71
  C:21E1H         LINE#         72
  C:21E3H         LINE#         73
BL51 BANKED LINKER/LOCATER V6.00                                                      07/18/2017  19:52:09  PAGE 34


  C:21F1H         LINE#         75
  C:21F4H         LINE#         76
  C:21FEH         LINE#         77
  C:220AH         LINE#         78
  C:222DH         LINE#         79
  C:224CH         LINE#         80
  C:226BH         LINE#         81
  C:2286H         LINE#         82
  C:2308H         LINE#         83
  C:235BH         LINE#         84
  C:2370H         LINE#         85
  -------         ENDPROC       _INIT_STR_MOTOR
  -------         PROC          _SET_STR_ANGLE
  X:04B8H         SYMBOL        MOTOR
  X:04B9H         SYMBOL        angle
  -------         DO            
  X:04BDH         SYMBOL        str_duty
  -------         ENDDO         
  C:2BACH         LINE#         96
  C:2BB1H         LINE#         97
  C:2BB1H         LINE#         99
  C:2BD2H         LINE#         100
  C:2C4FH         LINE#         110
  C:2C4FH         LINE#         111
  C:2C78H         LINE#         112
  C:2C94H         LINE#         113
  C:2C94H         LINE#         114
  -------         ENDPROC       _SET_STR_ANGLE
  -------         PROC          _READ_STR_ANGLE
  D:0007H         SYMBOL        MOTOR
  C:45F0H         LINE#         125
  C:45F0H         LINE#         126
  C:45F0H         LINE#         127
  C:4609H         LINE#         128
  -------         ENDPROC       _READ_STR_ANGLE
  -------         PROC          _OPEN_STR
  X:0519H         SYMBOL        MOTOR
  C:4297H         LINE#         129
  C:429CH         LINE#         130
  C:429CH         LINE#         131
  C:429FH         LINE#         132
  C:42B5H         LINE#         133
  C:42B6H         LINE#         134
  -------         ENDPROC       _OPEN_STR
  -------         PROC          _CLOSE_STR
  X:051AH         SYMBOL        MOTOR
  C:4356H         LINE#         135
  C:435BH         LINE#         136
  C:435BH         LINE#         137
  C:435EH         LINE#         138
  C:4373H         LINE#         139
  C:4374H         LINE#         140
  -------         ENDPROC       _CLOSE_STR
  -------         ENDMOD        SERVO

  -------         MODULE        STEP_MOTOR
  C:0000H         SYMBOL        _ICE_DUMMY_
BL51 BANKED LINKER/LOCATER V6.00                                                      07/18/2017  19:52:09  PAGE 35


  D:0080H         PUBLIC        P0
  D:0090H         PUBLIC        P1
  D:00A0H         PUBLIC        P2
  D:00B0H         PUBLIC        P3
  D:00C0H         PUBLIC        P4
  D:00C8H         PUBLIC        P5
  D:00E8H         PUBLIC        P6
  D:00F8H         PUBLIC        P7
  C:3556H         PUBLIC        _setStepMotorWithAngle
  D:00A8H         PUBLIC        IE
  D:00B8H         PUBLIC        IP
  X:044EH         SYMBOL        g_stepMotor
  D:00D8H         PUBLIC        CCON
  C:4445H         PUBLIC        _close_StepMotor
  C:3FB0H         PUBLIC        _setStepMotorWithRound
  D:0098H         PUBLIC        SCON
  D:0088H         PUBLIC        TCON
  C:487EH         PUBLIC        _setStepMotorDiversion
  D:00F0H         PUBLIC        B
  D:00E0H         PUBLIC        ACC
  C:43EEH         PUBLIC        _open_StepMotor
  C:3D4AH         PUBLIC        _stepMotor_Init
  C:4885H         PUBLIC        _freeStepMotor
  C:488CH         PUBLIC        _lockStepMotor
  C:4789H         PUBLIC        _getStepMotorState
  D:00D0H         PUBLIC        PSW
  -------         PROC          _SETSTEPMOTORWITHANGLE
  X:04E6H         SYMBOL        motor
  X:04E7H         SYMBOL        angle
  X:04EBH         SYMBOL        speed
  C:3556H         LINE#         44
  C:355BH         LINE#         45
  C:355BH         LINE#         46
  C:35F2H         LINE#         48
  C:35F3H         LINE#         49
  -------         ENDPROC       _SETSTEPMOTORWITHANGLE
  -------         PROC          _SETSTEPMOTORWITHROUND
  D:0007H         SYMBOL        motor
  D:0004H         SYMBOL        round
  X:051BH         SYMBOL        speed
  C:3FB0H         LINE#         60
  C:3FB5H         LINE#         61
  C:3FB5H         LINE#         62
  C:3FDDH         LINE#         63
  C:3FDEH         LINE#         64
  -------         ENDPROC       _SETSTEPMOTORWITHROUND
  -------         PROC          _GETSTEPMOTORSTATE
  D:0007H         SYMBOL        motor
  C:4789H         LINE#         73
  C:4789H         LINE#         74
  C:4789H         LINE#         75
  C:4799H         LINE#         76
  -------         ENDPROC       _GETSTEPMOTORSTATE
  -------         PROC          _SETSTEPMOTORDIVERSION
  X:051CH         SYMBOL        motor
  C:487EH         LINE#         77
  C:4883H         LINE#         78
BL51 BANKED LINKER/LOCATER V6.00                                                      07/18/2017  19:52:09  PAGE 36


  C:4883H         LINE#         80
  C:4884H         LINE#         81
  -------         ENDPROC       _SETSTEPMOTORDIVERSION
  -------         PROC          _CLOSE_STEPMOTOR
  X:051DH         SYMBOL        motor
  C:4445H         LINE#         90
  C:444AH         LINE#         91
  C:444AH         LINE#         92
  C:444DH         LINE#         93
  C:4460H         LINE#         95
  -------         ENDPROC       _CLOSE_STEPMOTOR
  -------         PROC          _OPEN_STEPMOTOR
  X:051EH         SYMBOL        motor
  C:43EEH         LINE#         104
  C:43F3H         LINE#         105
  C:43F3H         LINE#         106
  C:43F6H         LINE#         107
  C:440AH         LINE#         108
  -------         ENDPROC       _OPEN_STEPMOTOR
  -------         PROC          _FREESTEPMOTOR
  X:051FH         SYMBOL        motor
  C:4885H         LINE#         109
  C:488AH         LINE#         110
  C:488AH         LINE#         112
  C:488BH         LINE#         113
  -------         ENDPROC       _FREESTEPMOTOR
  -------         PROC          _LOCKSTEPMOTOR
  X:0520H         SYMBOL        motor
  C:488CH         LINE#         114
  C:4891H         LINE#         115
  C:4891H         LINE#         117
  C:4892H         LINE#         118
  -------         ENDPROC       _LOCKSTEPMOTOR
  -------         PROC          _STEPMOTOR_INIT
  D:0003H         SYMBOL        motor
  X:04C2H         SYMBOL        div
  X:04C6H         SYMBOL        driverDiv
  X:04C7H         SYMBOL        maxPeriod
  C:3D4AH         LINE#         129
  C:3D4CH         LINE#         130
  C:3D4CH         LINE#         131
  C:3D6BH         LINE#         132
  C:3D80H         LINE#         133
  C:3D9BH         LINE#         134
  -------         ENDPROC       _STEPMOTOR_INIT
  -------         ENDMOD        STEP_MOTOR

  -------         MODULE        RELAY
  C:0000H         SYMBOL        _ICE_DUMMY_
  D:0080H         PUBLIC        P0
  D:0090H         PUBLIC        P1
  D:00A0H         PUBLIC        P2
  D:00B0H         PUBLIC        P3
  D:00C0H         PUBLIC        P4
  D:00C8H         PUBLIC        P5
  D:00E8H         PUBLIC        P6
  D:00F8H         PUBLIC        P7
BL51 BANKED LINKER/LOCATER V6.00                                                      07/18/2017  19:52:09  PAGE 37


  D:00A8H         PUBLIC        IE
  C:480CH         PUBLIC        _unSetRelay
  C:48CCH         PUBLIC        relay_Init
  D:00B8H         PUBLIC        IP
  X:0508H         PUBLIC        relay
  D:00D8H         PUBLIC        CCON
  D:0098H         PUBLIC        SCON
  D:0088H         PUBLIC        TCON
  D:00F0H         PUBLIC        B
  D:00E0H         PUBLIC        ACC
  C:47FDH         PUBLIC        _setRelay
  D:00D0H         PUBLIC        PSW
  -------         PROC          _SETRELAY
  D:0007H         SYMBOL        RELAY
  C:47FDH         LINE#         10
  C:47FDH         LINE#         11
  C:47FDH         LINE#         12
  C:480AH         LINE#         13
  C:480BH         LINE#         14
  -------         ENDPROC       _SETRELAY
  -------         PROC          _UNSETRELAY
  D:0007H         SYMBOL        RELAY
  C:480CH         LINE#         15
  C:480CH         LINE#         16
  C:480CH         LINE#         17
  C:4818H         LINE#         18
  C:4819H         LINE#         19
  -------         ENDPROC       _UNSETRELAY
  -------         PROC          RELAY_INIT
  C:48CCH         LINE#         20
  C:48CCH         LINE#         21
  C:48CCH         LINE#         23
  -------         ENDPROC       RELAY_INIT
  -------         ENDMOD        RELAY

  -------         MODULE        ANGLE
  C:0000H         SYMBOL        _ICE_DUMMY_
  D:0080H         PUBLIC        P0
  D:0090H         PUBLIC        P1
  D:00A0H         PUBLIC        P2
  D:00B0H         PUBLIC        P3
  D:00C0H         PUBLIC        P4
  D:00C8H         PUBLIC        P5
  D:00E8H         PUBLIC        P6
  D:00F8H         PUBLIC        P7
  D:00A8H         PUBLIC        IE
  D:00B8H         PUBLIC        IP
  C:4461H         PUBLIC        _ADC_config
  D:00D8H         PUBLIC        CCON
  C:32C4H         PUBLIC        getAngle
  D:0098H         PUBLIC        SCON
  D:0088H         PUBLIC        TCON
  D:00F0H         PUBLIC        B
  D:00E0H         PUBLIC        ACC
  D:00D0H         PUBLIC        PSW
  -------         PROC          _ADC_CONFIG
  D:0007H         SYMBOL        pin
BL51 BANKED LINKER/LOCATER V6.00                                                      07/18/2017  19:52:09  PAGE 38


  D:0005H         SYMBOL        speed
  -------         DO            
  X:02FEH         SYMBOL        ADC_InitStructure
  -------         ENDDO         
  C:4461H         LINE#         27
  C:4461H         LINE#         28
  C:4461H         LINE#         30
  C:4466H         LINE#         31
  C:4469H         LINE#         32
  C:446DH         LINE#         33
  C:4470H         LINE#         34
  C:4472H         LINE#         35
  C:4474H         LINE#         36
  -------         ENDPROC       _ADC_CONFIG
  -------         PROC          GETANGLE
  B:0021H.3       SYMBOL        whichAngle
  -------         DO            
  X:0339H         SYMBOL        angleData
  X:034DH         SYMBOL        angleDataloopTemp1
  X:04C9H         SYMBOL        presentAngle
  X:04CDH         SYMBOL        lastAngle
  -------         ENDDO         
  C:32C4H         LINE#         53
  C:32C4H         LINE#         54
  C:32C4H         LINE#         56
  C:32C9H         LINE#         58
  C:32CFH         LINE#         59
  C:32CFH         LINE#         61
  C:32D0H         LINE#         62
  C:32D0H         LINE#         63
  C:32E9H         LINE#         64
  C:32F5H         LINE#         65
  C:331BH         LINE#         66
  C:3345H         LINE#         67
  C:3357H         LINE#         68
  C:335CH         LINE#         69
  C:335CH         LINE#         71
  C:335CH         LINE#         72
  C:336AH         LINE#         73
  C:336AH         LINE#         74
  -------         ENDPROC       GETANGLE
  -------         ENDMOD        ANGLE

  -------         MODULE        LCD1602
  C:0000H         SYMBOL        _ICE_DUMMY_
  D:0080H         PUBLIC        P0
  D:0090H         PUBLIC        P1
  D:00B4H         PUBLIC        P4M0
  D:00A0H         PUBLIC        P2
  D:00CAH         PUBLIC        P5M0
  D:00B3H         PUBLIC        P4M1
  D:00B0H         PUBLIC        P3
  D:00C9H         PUBLIC        P5M1
  D:00C0H         PUBLIC        P4
  D:00C8H         PUBLIC        P5
  D:00E8H         PUBLIC        P6
  D:00F8H         PUBLIC        P7
BL51 BANKED LINKER/LOCATER V6.00                                                      07/18/2017  19:52:09  PAGE 39


  C:43B3H         SYMBOL        LCD1602_GPIO_config
  B:00C8H.4       PUBLIC        LCD1602_Backlight
  D:00A8H         PUBLIC        IE
  B:00C8H.2       PUBLIC        LCD1602_EN
  C:440BH         PUBLIC        LCD1602_Init
  D:00B8H         PUBLIC        IP
  B:00C8H.0       PUBLIC        LCD1602_RS
  D:00D8H         PUBLIC        CCON
  B:00C8H.1       PUBLIC        LCD1602_RW
  C:447DH         PUBLIC        _LCD1602_write_char
  D:0098H         PUBLIC        SCON
  D:0088H         PUBLIC        TCON
  D:00F0H         PUBLIC        B
  D:00E0H         PUBLIC        ACC
  C:3FDFH         PUBLIC        _LCD1602_write_word
  C:4499H         SYMBOL        _LCD1602_write_com
  D:00D0H         PUBLIC        PSW
  -------         PROC          _LCD1602_WRITE_CHAR
  X:0521H         SYMBOL        dat
  C:447DH         LINE#         18
  C:4482H         LINE#         19
  C:4482H         LINE#         20
  C:4484H         LINE#         21
  C:4489H         LINE#         22
  C:448FH         LINE#         23
  C:4491H         LINE#         24
  C:4496H         LINE#         25
  C:4498H         LINE#         26
  -------         ENDPROC       _LCD1602_WRITE_CHAR
  -------         PROC          _LCD1602_WRITE_WORD
  X:050BH         SYMBOL        s
  C:3FDFH         LINE#         31
  C:3FEAH         LINE#         32
  C:3FEAH         LINE#         33
  C:3FFEH         LINE#         34
  C:3FFEH         LINE#         35
  C:4001H         LINE#         36
  C:400BH         LINE#         37
  C:400DH         LINE#         38
  -------         ENDPROC       _LCD1602_WRITE_WORD
  -------         PROC          LCD1602_INIT
  C:440BH         LINE#         40
  C:440BH         LINE#         41
  C:440BH         LINE#         42
  C:440EH         LINE#         43
  C:4410H         LINE#         46
  C:4412H         LINE#         47
  C:4414H         LINE#         48
  C:4419H         LINE#         49
  C:441EH         LINE#         50
  C:4423H         LINE#         51
  -------         ENDPROC       LCD1602_INIT
  -------         PROC          _LCD1602_WRITE_COM
  X:0522H         SYMBOL        com
  C:4499H         LINE#         59
  C:449EH         LINE#         60
  C:449EH         LINE#         61
BL51 BANKED LINKER/LOCATER V6.00                                                      07/18/2017  19:52:09  PAGE 40


  C:44A0H         LINE#         62
  C:44A5H         LINE#         63
  C:44A7H         LINE#         64
  C:44ADH         LINE#         65
  C:44B2H         LINE#         66
  C:44B4H         LINE#         67
  -------         ENDPROC       _LCD1602_WRITE_COM
  -------         PROC          LCD1602_GPIO_CONFIG
  C:43B3H         LINE#         69
  C:43B3H         LINE#         70
  C:43B3H         LINE#         71
  C:43B6H         LINE#         72
  C:43B9H         LINE#         74
  C:43BCH         LINE#         75
  C:43BFH         LINE#         77
  C:43C2H         LINE#         78
  C:43C5H         LINE#         80
  C:43C8H         LINE#         81
  C:43CBH         LINE#         83
  C:43CEH         LINE#         84
  C:43D0H         LINE#         85
  -------         ENDPROC       LCD1602_GPIO_CONFIG
  -------         ENDMOD        LCD1602

  -------         MODULE        74HC595
  C:0000H         SYMBOL        _ICE_DUMMY_
  D:0080H         PUBLIC        P0
  D:0090H         PUBLIC        P1
  D:00A0H         PUBLIC        P2
  D:00B0H         PUBLIC        P3
  D:00C0H         PUBLIC        P4
  D:00C8H         PUBLIC        P5
  D:00E8H         PUBLIC        P6
  D:00F8H         PUBLIC        P7
  D:00A8H         PUBLIC        IE
  D:00B8H         PUBLIC        IP
  D:00D8H         PUBLIC        CCON
  C:4672H         PUBLIC        _HC595_Init
  D:0098H         PUBLIC        SCON
  D:0088H         PUBLIC        TCON
  C:479AH         PUBLIC        _HC595SendData
  D:00F0H         PUBLIC        B
  D:00E0H         PUBLIC        ACC
  D:00D0H         PUBLIC        PSW
  -------         PROC          _HC595_INIT
  D:0006H         SYMBOL        pin1
  X:0504H         SYMBOL        pin2
  -------         DO            
  X:0506H         SYMBOL        HC595_Pin
  -------         ENDDO         
  C:4672H         LINE#         16
  C:467AH         LINE#         17
  C:467AH         LINE#         19
  C:467DH         LINE#         20
  C:4680H         LINE#         21
  -------         ENDPROC       _HC595_INIT
  -------         PROC          _HC595SENDDATA
BL51 BANKED LINKER/LOCATER V6.00                                                      07/18/2017  19:52:09  PAGE 41


  X:0523H         SYMBOL        SendVal
  -------         DO            
  D:0007H         SYMBOL        i
  -------         ENDDO         
  C:479AH         LINE#         24
  C:479FH         LINE#         25
  C:479FH         LINE#         27
  C:47A1H         LINE#         28
  C:47A1H         LINE#         29
  C:47A1H         LINE#         30
  C:47A1H         LINE#         32
  C:47A1H         LINE#         34
  C:47A1H         LINE#         36
  C:47A1H         LINE#         38
  C:47A3H         LINE#         40
  C:47A8H         LINE#         42
  C:47AAH         LINE#         44
  -------         ENDPROC       _HC595SENDDATA
  -------         ENDMOD        74HC595

  -------         MODULE        FIXEDPULSER
  C:0000H         SYMBOL        _ICE_DUMMY_
  D:0080H         PUBLIC        P0
  D:0090H         PUBLIC        P1
  D:00A0H         PUBLIC        P2
  D:00B0H         PUBLIC        P3
  D:00C0H         PUBLIC        P4
  D:00F6H         PUBLIC        PWMIF
  D:00C8H         PUBLIC        P5
  D:00E8H         PUBLIC        P6
  D:00F8H         PUBLIC        P7
  D:00BAH         PUBLIC        P_SW2
  D:00A8H         PUBLIC        IE
  C:3ABBH         PUBLIC        PulserInit
  C:42D7H         PUBLIC        _closePulser
  D:00B8H         PUBLIC        IP
  X:042FH         SYMBOL        g_PWM_2tmp
  X:0433H         SYMBOL        g_PWM_3tmp
  X:0437H         SYMBOL        g_PWM_4tmp
  D:00D8H         PUBLIC        CCON
  X:043BH         SYMBOL        g_PWM_5tmp
  X:043FH         SYMBOL        g_PWM_6tmp
  X:0443H         SYMBOL        g_PWM_7tmp
  C:42B7H         PUBLIC        _openPulser
  D:0098H         PUBLIC        SCON
  D:0088H         PUBLIC        TCON
  B:0090H.7       PUBLIC        P17
  C:2EACH         SYMBOL        PWM_Routine
  D:00F0H         PUBLIC        B
  C:4754H         PUBLIC        _getPulserState
  D:00E0H         PUBLIC        ACC
  C:3C9BH         PUBLIC        _setPulse
  X:0447H         SYMBOL        g_pulser
  D:00D0H         PUBLIC        PSW
  -------         PROC          _SETPULSE
  X:04D1H         SYMBOL        pulser_num
  X:04D2H         SYMBOL        Hz
BL51 BANKED LINKER/LOCATER V6.00                                                      07/18/2017  19:52:09  PAGE 42


  X:04D4H         SYMBOL        count
  C:3C9BH         LINE#         29
  C:3CA6H         LINE#         30
  C:3CA6H         LINE#         31
  C:3CB3H         LINE#         32
  C:3CD2H         LINE#         33
  C:3CF1H         LINE#         35
  C:3CF2H         LINE#         36
  -------         ENDPROC       _SETPULSE
  -------         PROC          _OPENPULSER
  X:0524H         SYMBOL        pulser_num
  C:42B7H         LINE#         37
  C:42BCH         LINE#         38
  C:42BCH         LINE#         39
  C:42C1H         LINE#         40
  C:42D5H         LINE#         42
  C:42D6H         LINE#         43
  -------         ENDPROC       _OPENPULSER
  -------         PROC          _CLOSEPULSER
  X:0525H         SYMBOL        pulser_num
  C:42D7H         LINE#         44
  C:42DCH         LINE#         45
  C:42DCH         LINE#         47
  C:42E2H         LINE#         49
  C:42F5H         LINE#         50
  C:42F6H         LINE#         52
  -------         ENDPROC       _CLOSEPULSER
  -------         PROC          _GETPULSERSTATE
  D:0007H         SYMBOL        pulser_num
  C:4754H         LINE#         53
  C:4754H         LINE#         54
  C:4754H         LINE#         56
  C:4765H         LINE#         58
  -------         ENDPROC       _GETPULSERSTATE
  -------         PROC          PULSERINIT
  -------         DO            
  X:0495H         SYMBOL        GPIO_InitStructure
  X:0497H         SYMBOL        PWM_InitStructure
  -------         ENDDO         
  C:3ABBH         LINE#         59
  C:3ABBH         LINE#         60
  C:3ABBH         LINE#         75
  C:3AC0H         LINE#         77
  C:3AC4H         LINE#         78
  C:3ACFH         LINE#         79
  C:3AD1H         LINE#         80
  C:3AE0H         LINE#         82
  C:3AE3H         LINE#         83
  C:3AE8H         LINE#         84
  C:3AEAH         LINE#         85
  C:3AECH         LINE#         86
  C:3AEFH         LINE#         87
  C:3AF2H         LINE#         88
  C:3AF4H         LINE#         89
  C:3AF6H         LINE#         90
  C:3AF8H         LINE#         91
  C:3AFAH         LINE#         92
BL51 BANKED LINKER/LOCATER V6.00                                                      07/18/2017  19:52:09  PAGE 43


  C:3AFCH         LINE#         93
  C:3B00H         LINE#         94
  C:3B03H         LINE#         95
  C:3B06H         LINE#         96
  C:3B09H         LINE#         97
  C:3B0CH         LINE#         98
  C:3B0FH         LINE#         101
  C:3B1AH         LINE#         103
  C:3B1DH         LINE#         104
  -------         ENDPROC       PULSERINIT
  -------         PROC          PWM_ROUTINE
  C:2EACH         LINE#         115
  C:2EC9H         LINE#         118
  C:2ECDH         LINE#         119
  C:2ECDH         LINE#         120
  C:2ED0H         LINE#         122
  C:2EEAH         LINE#         123
  C:2EEAH         LINE#         124
  C:2EF4H         LINE#         125
  C:2EF6H         LINE#         126
  C:2EF6H         LINE#         127
  C:2EF8H         LINE#         128
  C:2EFCH         LINE#         129
  C:2EFCH         LINE#         130
  C:2EFFH         LINE#         131
  C:2F19H         LINE#         132
  C:2F19H         LINE#         133
  C:2F23H         LINE#         134
  C:2F28H         LINE#         135
  C:2F28H         LINE#         136
  C:2F2AH         LINE#         137
  C:2F2EH         LINE#         138
  C:2F2EH         LINE#         139
  C:2F31H         LINE#         140
  C:2F33H         LINE#         141
  C:2F37H         LINE#         142
  C:2F37H         LINE#         143
  C:2F3AH         LINE#         145
  C:2F3CH         LINE#         146
  C:2F42H         LINE#         147
  C:2F42H         LINE#         148
  C:2F42H         LINE#         149
  C:2F44H         LINE#         150
  C:2F48H         LINE#         151
  C:2F48H         LINE#         152
  C:2F4BH         LINE#         153
  C:2F4BH         LINE#         155
  C:2F4BH         LINE#         157
  C:2F4BH         LINE#         159
  -------         ENDPROC       PWM_ROUTINE
  -------         ENDMOD        FIXEDPULSER

  -------         MODULE        ADC
  C:0000H         SYMBOL        _ICE_DUMMY_
  D:0080H         PUBLIC        P0
  D:0090H         PUBLIC        P1
  C:3D9EH         PUBLIC        _ADC_Inilize
BL51 BANKED LINKER/LOCATER V6.00                                                      07/18/2017  19:52:09  PAGE 44


  D:00A0H         PUBLIC        P2
  D:00B0H         PUBLIC        P3
  D:00C0H         PUBLIC        P4
  D:00C8H         PUBLIC        P5
  D:00E8H         PUBLIC        P6
  D:00F8H         PUBLIC        P7
  B:00A8H.5       PUBLIC        EADC
  D:00A8H         PUBLIC        IE
  D:00BDH         PUBLIC        ADC_RES
  B:00B8H.5       PUBLIC        PADC
  D:00B8H         PUBLIC        IP
  C:4836H         PUBLIC        _ADC_PowerControl
  D:00D8H         PUBLIC        CCON
  D:00BCH         PUBLIC        ADC_CONTR
  D:0098H         PUBLIC        SCON
  D:0088H         PUBLIC        TCON
  D:00F0H         PUBLIC        B
  D:00E0H         PUBLIC        ACC
  D:009DH         PUBLIC        P1ASF
  D:00BEH         PUBLIC        ADC_RESL
  D:0097H         PUBLIC        PCON2
  C:3BE4H         PUBLIC        _Get_ADC10bitResult
  C:48BBH         PUBLIC        ADC_int
  D:00D0H         PUBLIC        PSW
  -------         PROC          _ADC_INILIZE
  D:0001H         SYMBOL        ADCx
  C:3D9EH         LINE#         22
  C:3D9EH         LINE#         23
  C:3D9EH         LINE#         24
  C:3DA3H         LINE#         25
  C:3DB1H         LINE#         26
  C:3DBAH         LINE#         27
  C:3DBAH         LINE#         28
  C:3DBDH         LINE#         29
  C:3DBFH         LINE#         31
  C:3DBFH         LINE#         32
  C:3DC2H         LINE#         33
  C:3DC2H         LINE#         34
  C:3DCBH         LINE#         35
  C:3DCBH         LINE#         36
  C:3DCEH         LINE#         37
  C:3DD0H         LINE#         39
  C:3DD0H         LINE#         40
  C:3DD3H         LINE#         41
  C:3DD3H         LINE#         42
  C:3DDCH         LINE#         43
  C:3DDCH         LINE#         44
  C:3DDEH         LINE#         45
  C:3DE0H         LINE#         47
  C:3DE0H         LINE#         48
  C:3DE2H         LINE#         49
  C:3DE2H         LINE#         50
  C:3DEBH         LINE#         51
  C:3DEBH         LINE#         52
  C:3DEDH         LINE#         53
  C:3DEEH         LINE#         55
  C:3DEEH         LINE#         56
BL51 BANKED LINKER/LOCATER V6.00                                                      07/18/2017  19:52:09  PAGE 45


  C:3DF0H         LINE#         57
  C:3DF0H         LINE#         58
  -------         ENDPROC       _ADC_INILIZE
  -------         PROC          _ADC_POWERCONTROL
  D:0007H         SYMBOL        pwr
  C:4836H         LINE#         66
  C:4836H         LINE#         67
  C:4836H         LINE#         68
  C:483AH         LINE#         69
  C:483AH         LINE#         70
  C:483DH         LINE#         71
  C:483EH         LINE#         73
  C:483EH         LINE#         74
  C:4841H         LINE#         75
  C:4841H         LINE#         76
  -------         ENDPROC       _ADC_POWERCONTROL
  -------         PROC          _GET_ADC10BITRESULT
  D:0007H         SYMBOL        channel
  -------         DO            
  D:0004H         SYMBOL        adc
  D:0003H         SYMBOL        i
  -------         ENDDO         
  C:3BE4H         LINE#         84
  C:3BE4H         LINE#         85
  C:3BE4H         LINE#         88
  C:3BEAH         LINE#         89
  C:3BEAH         LINE#         90
  C:3BECH         LINE#         91
  C:3BECH         LINE#         92
  C:3BEFH         LINE#         93
  C:3BF1H         LINE#         94
  C:3BFAH         LINE#         95
  C:3BFEH         LINE#         96
  C:3C00H         LINE#         97
  C:3C00H         LINE#         98
  C:3C05H         LINE#         99
  C:3C05H         LINE#         100
  C:3C08H         LINE#         101
  C:3C0DH         LINE#         102
  C:3C0DH         LINE#         103
  C:3C11H         LINE#         104
  C:3C14H         LINE#         105
  C:3C16H         LINE#         107
  C:3C16H         LINE#         108
  C:3C1CH         LINE#         109
  C:3C33H         LINE#         110
  C:3C33H         LINE#         111
  C:3C38H         LINE#         112
  C:3C38H         LINE#         113
  C:3C3DH         LINE#         114
  C:3C41H         LINE#         115
  -------         ENDPROC       _GET_ADC10BITRESULT
  -------         PROC          ADC_INT
  C:48BBH         LINE#         123
  C:48BBH         LINE#         125
  C:48BEH         LINE#         126
  -------         ENDPROC       ADC_INT
BL51 BANKED LINKER/LOCATER V6.00                                                      07/18/2017  19:52:09  PAGE 46


  -------         ENDMOD        ADC

  -------         MODULE        DELAY
  C:0000H         SYMBOL        _ICE_DUMMY_
  D:0080H         PUBLIC        P0
  D:0090H         PUBLIC        P1
  D:00A0H         PUBLIC        P2
  D:00B0H         PUBLIC        P3
  D:00C0H         PUBLIC        P4
  D:00C8H         PUBLIC        P5
  D:00E8H         PUBLIC        P6
  D:00F8H         PUBLIC        P7
  D:00A8H         PUBLIC        IE
  D:00B8H         PUBLIC        IP
  D:00D8H         PUBLIC        CCON
  D:0098H         PUBLIC        SCON
  D:0088H         PUBLIC        TCON
  D:00F0H         PUBLIC        B
  D:00E0H         PUBLIC        ACC
  C:47EDH         PUBLIC        _delay_ms
  D:00D0H         PUBLIC        PSW
  -------         PROC          _DELAY_MS
  D:0007H         SYMBOL        ms
  -------         DO            
  D:0004H         SYMBOL        i
  -------         ENDDO         
  C:47EDH         LINE#         26
  C:47EDH         LINE#         27
  C:47EDH         LINE#         30
  C:47EDH         LINE#         31
  C:47F1H         LINE#         32
  C:47FAH         LINE#         33
  C:47FAH         LINE#         35
  C:47FAH         LINE#         36
  C:47FAH         LINE#         37
  C:47FCH         LINE#         38
  -------         ENDPROC       _DELAY_MS
  -------         ENDMOD        DELAY

  -------         MODULE        GPIO
  C:0000H         SYMBOL        _ICE_DUMMY_
  D:0093H         PUBLIC        P0M1
  D:0092H         PUBLIC        P1M0
  D:0096H         PUBLIC        P2M0
  D:0091H         PUBLIC        P1M1
  D:0080H         PUBLIC        P0
  D:00B2H         PUBLIC        P3M0
  D:0095H         PUBLIC        P2M1
  D:0090H         PUBLIC        P1
  D:00B4H         PUBLIC        P4M0
  D:00B1H         PUBLIC        P3M1
  D:00A0H         PUBLIC        P2
  D:00CAH         PUBLIC        P5M0
  D:00B3H         PUBLIC        P4M1
  D:00B0H         PUBLIC        P3
  D:00C9H         PUBLIC        P5M1
  D:00C0H         PUBLIC        P4
BL51 BANKED LINKER/LOCATER V6.00                                                      07/18/2017  19:52:09  PAGE 47


  D:00C8H         PUBLIC        P5
  D:00E8H         PUBLIC        P6
  D:00F8H         PUBLIC        P7
  D:00A8H         PUBLIC        IE
  D:00B8H         PUBLIC        IP
  D:00D8H         PUBLIC        CCON
  D:0098H         PUBLIC        SCON
  D:0088H         PUBLIC        TCON
  D:00F0H         PUBLIC        B
  D:00E0H         PUBLIC        ACC
  C:2371H         PUBLIC        _GPIO_Inilize
  D:00D0H         PUBLIC        PSW
  C:48C2H         PUBLIC        _setPinState
  D:0094H         PUBLIC        P0M0
  -------         PROC          _SETPINSTATE
  D:0007H         SYMBOL        Pin
  B:0021H.6       SYMBOL        State
  C:48C2H         LINE#         18
  C:48C2H         LINE#         19
  C:48C2H         LINE#         20
  C:48C4H         LINE#         23
  -------         ENDPROC       _SETPINSTATE
  -------         PROC          _GPIO_INILIZE
  D:0007H         SYMBOL        GPIO
  D:0001H         SYMBOL        GPIOx
  C:2371H         LINE#         31
  C:2371H         LINE#         32
  C:2371H         LINE#         33
  C:2377H         LINE#         34
  C:2377H         LINE#         35
  C:237AH         LINE#         36
  C:237AH         LINE#         37
  C:2383H         LINE#         38
  C:2383H         LINE#         39
  C:2386H         LINE#         40
  C:2386H         LINE#         41
  C:2389H         LINE#         42
  C:2389H         LINE#         43
  C:238CH         LINE#         44
  C:238CH         LINE#         45
  C:2397H         LINE#         46
  C:2397H         LINE#         47
  C:239DH         LINE#         48
  C:239DH         LINE#         49
  C:23A8H         LINE#         50
  C:23A8H         LINE#         51
  C:23AFH         LINE#         52
  C:23AFH         LINE#         53
  C:23B9H         LINE#         54
  C:23B9H         LINE#         55
  C:23BDH         LINE#         56
  C:23BDH         LINE#         57
  C:23CAH         LINE#         58
  C:23CAH         LINE#         59
  C:23CAH         LINE#         60
  C:23CFH         LINE#         61
  C:23CFH         LINE#         62
BL51 BANKED LINKER/LOCATER V6.00                                                      07/18/2017  19:52:09  PAGE 48


  C:23D5H         LINE#         63
  C:23D5H         LINE#         64
  C:23E0H         LINE#         65
  C:23E0H         LINE#         66
  C:23E4H         LINE#         67
  C:23E4H         LINE#         68
  C:23EFH         LINE#         69
  C:23EFH         LINE#         70
  C:23F5H         LINE#         71
  C:23F5H         LINE#         72
  C:23FFH         LINE#         73
  C:23FFH         LINE#         74
  C:2405H         LINE#         75
  C:2405H         LINE#         76
  C:2412H         LINE#         77
  C:2412H         LINE#         78
  C:2412H         LINE#         79
  C:2417H         LINE#         80
  C:2417H         LINE#         81
  C:241DH         LINE#         82
  C:241DH         LINE#         83
  C:2428H         LINE#         84
  C:2428H         LINE#         85
  C:242CH         LINE#         86
  C:242CH         LINE#         87
  C:2437H         LINE#         88
  C:2437H         LINE#         89
  C:243DH         LINE#         90
  C:243DH         LINE#         91
  C:2447H         LINE#         92
  C:2447H         LINE#         93
  C:244DH         LINE#         94
  C:244DH         LINE#         95
  C:245AH         LINE#         96
  C:245AH         LINE#         97
  C:245AH         LINE#         98
  C:245FH         LINE#         99
  C:245FH         LINE#         100
  C:2465H         LINE#         101
  C:2465H         LINE#         102
  C:2470H         LINE#         103
  C:2470H         LINE#         104
  C:2474H         LINE#         105
  C:2474H         LINE#         106
  C:247FH         LINE#         107
  C:247FH         LINE#         108
  C:2485H         LINE#         109
  C:2485H         LINE#         110
  C:248FH         LINE#         111
  C:248FH         LINE#         112
  C:2495H         LINE#         113
  C:2495H         LINE#         114
  C:24A2H         LINE#         115
  C:24A2H         LINE#         116
  C:24A2H         LINE#         117
  C:24A7H         LINE#         118
  C:24A7H         LINE#         119
BL51 BANKED LINKER/LOCATER V6.00                                                      07/18/2017  19:52:09  PAGE 49


  C:24ADH         LINE#         120
  C:24ADH         LINE#         121
  C:24B8H         LINE#         122
  C:24B8H         LINE#         123
  C:24BCH         LINE#         124
  C:24BCH         LINE#         125
  C:24C7H         LINE#         126
  C:24C7H         LINE#         127
  C:24CDH         LINE#         128
  C:24CDH         LINE#         129
  C:24D7H         LINE#         130
  C:24D7H         LINE#         131
  C:24DDH         LINE#         132
  C:24DDH         LINE#         133
  C:24EAH         LINE#         134
  C:24EAH         LINE#         135
  C:24EAH         LINE#         136
  C:24EFH         LINE#         137
  C:24EFH         LINE#         138
  C:24F5H         LINE#         139
  C:24F5H         LINE#         140
  C:2500H         LINE#         141
  C:2500H         LINE#         142
  C:2504H         LINE#         143
  C:2504H         LINE#         144
  C:250FH         LINE#         145
  C:250FH         LINE#         146
  C:2515H         LINE#         147
  C:2515H         LINE#         148
  C:251FH         LINE#         149
  C:251FH         LINE#         150
  C:2525H         LINE#         151
  C:2525H         LINE#         152
  C:2532H         LINE#         153
  C:2532H         LINE#         154
  C:2532H         LINE#         155
  C:2534H         LINE#         156
  -------         ENDPROC       _GPIO_INILIZE
  -------         ENDMOD        GPIO

  -------         MODULE        PCA
  C:0000H         SYMBOL        _ICE_DUMMY_
  B:00D8H.2       PUBLIC        CCF2
  D:0080H         PUBLIC        P0
  D:0090H         PUBLIC        P1
  D:00A0H         PUBLIC        P2
  D:00B0H         PUBLIC        P3
  D:00C0H         PUBLIC        P4
  D:00C8H         PUBLIC        P5
  D:00E8H         PUBLIC        P6
  D:00F8H         PUBLIC        P7
  D:00F9H         PUBLIC        CH
  X:0480H         PUBLIC        PCA0_mode
  X:0481H         PUBLIC        PCA1_mode
  D:00A8H         PUBLIC        IE
  X:0482H         PUBLIC        PCA2_mode
  D:00E9H         PUBLIC        CL
BL51 BANKED LINKER/LOCATER V6.00                                                      07/18/2017  19:52:09  PAGE 50


  D:00FAH         PUBLIC        CCAP0H
  D:00FBH         PUBLIC        CCAP1H
  D:00FCH         PUBLIC        CCAP2H
  B:00D8H.6       PUBLIC        CR
  D:00EAH         PUBLIC        CCAP0L
  D:00EBH         PUBLIC        CCAP1L
  D:00DAH         PUBLIC        CCAPM0
  D:00ECH         PUBLIC        CCAP2L
  D:00DBH         PUBLIC        CCAPM1
  D:00DCH         PUBLIC        CCAPM2
  D:00B8H         PUBLIC        IP
  D:00D9H         PUBLIC        CMOD
  D:00D8H         PUBLIC        CCON
  B:00B8H.7       PUBLIC        PPCA
  C:3017H         PUBLIC        _PWMn_Update
  B:0020H.7       PUBLIC        B_Capture0
  B:0021H.0       PUBLIC        B_Capture1
  B:0021H.1       PUBLIC        B_Capture2
  D:0098H         PUBLIC        SCON
  D:0088H         PUBLIC        TCON
  B:00A0H.5       PUBLIC        P25
  B:00A0H.6       PUBLIC        P26
  B:00A0H.7       PUBLIC        P27
  D:00F0H         PUBLIC        B
  D:00E0H         PUBLIC        ACC
  C:26D4H         PUBLIC        _pwmOutPut
  C:2535H         PUBLIC        _PCA_Init
  X:0483H         PUBLIC        PWM0_low
  X:0485H         PUBLIC        PWM1_low
  D:00F2H         PUBLIC        PCA_PWM0
  X:0487H         PUBLIC        PWM2_low
  D:00F3H         PUBLIC        PCA_PWM1
  D:00F4H         PUBLIC        PCA_PWM2
  X:0489H         PUBLIC        PCA_Timer0
  X:048BH         PUBLIC        PCA_Timer1
  X:048DH         PUBLIC        PCA_Timer2
  D:00A2H         PUBLIC        AUXR1
  C:34B3H         PUBLIC        PCA_Handler
  D:00D0H         PUBLIC        PSW
  X:048FH         PUBLIC        CCAP0_tmp
  X:0491H         PUBLIC        CCAP1_tmp
  B:00D8H.0       PUBLIC        CCF0
  X:0493H         PUBLIC        CCAP2_tmp
  B:00D8H.1       PUBLIC        CCF1
  -------         PROC          _PWMN_UPDATE
  D:0007H         SYMBOL        PCA_id
  D:0004H         SYMBOL        high
  C:3017H         LINE#         34
  C:3017H         LINE#         35
  C:3017H         LINE#         36
  C:301AH         LINE#         37
  C:301AH         LINE#         38
  C:3023H         LINE#         39
  C:3023H         LINE#         40
  C:3027H         LINE#         41
  C:3027H         LINE#         42
  C:3030H         LINE#         43
BL51 BANKED LINKER/LOCATER V6.00                                                      07/18/2017  19:52:09  PAGE 51


  C:3030H         LINE#         44
  C:3034H         LINE#         45
  C:3034H         LINE#         46
  C:3036H         LINE#         47
  C:303EH         LINE#         48
  C:304CH         LINE#         49
  C:304CH         LINE#         50
  C:304EH         LINE#         51
  C:3053H         LINE#         52
  C:3053H         LINE#         53
  C:305CH         LINE#         54
  C:305CH         LINE#         55
  C:3060H         LINE#         56
  C:3060H         LINE#         57
  C:3069H         LINE#         58
  C:3069H         LINE#         59
  C:306DH         LINE#         60
  C:306DH         LINE#         61
  C:306FH         LINE#         62
  C:3077H         LINE#         63
  C:3085H         LINE#         64
  C:3085H         LINE#         65
  C:3087H         LINE#         66
  C:308CH         LINE#         67
  C:308CH         LINE#         68
  C:3095H         LINE#         69
  C:3095H         LINE#         70
  C:3099H         LINE#         71
  C:3099H         LINE#         72
  C:30A2H         LINE#         73
  C:30A2H         LINE#         74
  C:30A6H         LINE#         75
  C:30A6H         LINE#         76
  C:30A8H         LINE#         77
  C:30B0H         LINE#         78
  C:30C2H         LINE#         79
  C:30C4H         LINE#         80
  C:30C4H         LINE#         81
  -------         ENDPROC       _PWMN_UPDATE
  -------         PROC          _PCA_INIT
  D:0005H         SYMBOL        PCA_id
  X:050EH         SYMBOL        PCAx
  C:2535H         LINE#         106
  C:2542H         LINE#         107
  C:2542H         LINE#         108
  C:254BH         LINE#         109
  C:254BH         LINE#         111
  C:254BH         LINE#         112
  C:2550H         LINE#         113
  C:2550H         LINE#         114
  C:2552H         LINE#         115
  C:2554H         LINE#         116
  C:2556H         LINE#         117
  C:256CH         LINE#         118
  C:257AH         LINE#         119
  C:258AH         LINE#         120
  C:2593H         LINE#         121
BL51 BANKED LINKER/LOCATER V6.00                                                      07/18/2017  19:52:09  PAGE 52


  C:2593H         LINE#         122
  C:2595H         LINE#         123
  C:2597H         LINE#         125
  C:2597H         LINE#         126
  C:2599H         LINE#         127
  C:2599H         LINE#         128
  C:259CH         LINE#         130
  C:259CH         LINE#         131
  C:25B4H         LINE#         132
  C:25CAH         LINE#         133
  C:25CAH         LINE#         134
  C:25D9H         LINE#         135
  C:25D9H         LINE#         136
  C:25DCH         LINE#         137
  C:25DCH         LINE#         138
  C:25F8H         LINE#         139
  C:2606H         LINE#         140
  C:2617H         LINE#         141
  C:2619H         LINE#         142
  C:261EH         LINE#         143
  C:2626H         LINE#         144
  C:2628H         LINE#         145
  C:262BH         LINE#         146
  C:262BH         LINE#         147
  C:2630H         LINE#         148
  C:2630H         LINE#         149
  C:264CH         LINE#         150
  C:265AH         LINE#         151
  C:266BH         LINE#         152
  C:266DH         LINE#         153
  C:2672H         LINE#         154
  C:267AH         LINE#         155
  C:267CH         LINE#         156
  C:267FH         LINE#         157
  C:267FH         LINE#         158
  C:2684H         LINE#         159
  C:2684H         LINE#         160
  C:26A0H         LINE#         161
  C:26AEH         LINE#         162
  C:26BFH         LINE#         163
  C:26C1H         LINE#         164
  C:26C6H         LINE#         165
  C:26CEH         LINE#         166
  C:26D0H         LINE#         167
  C:26D3H         LINE#         168
  C:26D3H         LINE#         169
  -------         ENDPROC       _PCA_INIT
  -------         PROC          _PWMOUTPUT
  X:0511H         SYMBOL        PCA_id
  X:0512H         SYMBOL        T
  D:0002H         SYMBOL        duty
  C:26D4H         LINE#         170
  C:26E1H         LINE#         171
  C:26E1H         LINE#         172
  C:26E3H         LINE#         173
  C:26E3H         LINE#         174
  C:26ECH         LINE#         175
BL51 BANKED LINKER/LOCATER V6.00                                                      07/18/2017  19:52:09  PAGE 53


  C:26ECH         LINE#         176
  C:26F0H         LINE#         177
  C:26F0H         LINE#         178
  C:26F9H         LINE#         179
  C:26F9H         LINE#         180
  C:26FDH         LINE#         181
  C:26FDH         LINE#         182
  C:26FFH         LINE#         183
  C:271DH         LINE#         184
  C:273EH         LINE#         185
  C:273EH         LINE#         186
  C:2741H         LINE#         187
  C:2749H         LINE#         188
  C:2749H         LINE#         189
  C:2752H         LINE#         190
  C:2752H         LINE#         191
  C:2756H         LINE#         192
  C:2756H         LINE#         193
  C:275FH         LINE#         194
  C:275FH         LINE#         195
  C:2763H         LINE#         196
  C:2763H         LINE#         197
  C:2765H         LINE#         198
  C:2783H         LINE#         199
  C:27A4H         LINE#         200
  C:27A4H         LINE#         201
  C:27A6H         LINE#         202
  C:27AEH         LINE#         203
  C:27AEH         LINE#         204
  C:27B7H         LINE#         205
  C:27B7H         LINE#         206
  C:27BBH         LINE#         207
  C:27BBH         LINE#         208
  C:27C4H         LINE#         209
  C:27C4H         LINE#         210
  C:27C8H         LINE#         211
  C:27C8H         LINE#         212
  C:27CAH         LINE#         213
  C:27E8H         LINE#         214
  C:280EH         LINE#         215
  C:2810H         LINE#         216
  C:2810H         LINE#         217
  -------         ENDPROC       _PWMOUTPUT
  -------         PROC          PCA_HANDLER
  C:34B3H         LINE#         225
  C:34C2H         LINE#         227
  C:34C5H         LINE#         228
  C:34C5H         LINE#         229
  C:34C7H         LINE#         230
  C:34CAH         LINE#         231
  C:34CAH         LINE#         232
  C:34CDH         LINE#         233
  C:34CFH         LINE#         235
  C:34CFH         LINE#         236
  C:34E3H         LINE#         237
  C:34E3H         LINE#         238
  C:34ECH         LINE#         239
BL51 BANKED LINKER/LOCATER V6.00                                                      07/18/2017  19:52:09  PAGE 54


  C:34EFH         LINE#         240
  C:34EFH         LINE#         241
  C:34F2H         LINE#         242
  C:34F2H         LINE#         243
  C:34F4H         LINE#         244
  C:34F7H         LINE#         245
  C:34F7H         LINE#         246
  C:34FAH         LINE#         247
  C:34FCH         LINE#         249
  C:34FCH         LINE#         250
  C:3510H         LINE#         251
  C:3510H         LINE#         252
  C:3519H         LINE#         253
  C:351CH         LINE#         254
  C:351CH         LINE#         255
  C:351FH         LINE#         256
  C:351FH         LINE#         257
  C:3521H         LINE#         258
  C:3524H         LINE#         259
  C:3524H         LINE#         260
  C:3527H         LINE#         261
  C:3529H         LINE#         263
  C:3529H         LINE#         264
  C:353DH         LINE#         265
  C:353DH         LINE#         266
  C:3546H         LINE#         267
  C:3549H         LINE#         268
  C:3549H         LINE#         274
  -------         ENDPROC       PCA_HANDLER
  -------         ENDMOD        PCA

  -------         MODULE        STC15_PWM
  C:0000H         SYMBOL        _ICE_DUMMY_
  C:460AH         PUBLIC        _get_PWM_period
  D:0080H         PUBLIC        P0
  C:35F4H         SYMBOL        _PWM_SET_T12_PERIOD
  D:0090H         PUBLIC        P1
  D:00A0H         PUBLIC        P2
  D:00B0H         PUBLIC        P3
  D:00C0H         PUBLIC        P4
  D:00C8H         PUBLIC        P5
  D:00E8H         PUBLIC        P6
  D:00F8H         PUBLIC        P7
  C:47ABH         PUBLIC        _setPWM_DIV
  C:3B24H         PUBLIC        _set_PWM_period
  D:00F5H         PUBLIC        PWMCR
  D:00BAH         PUBLIC        P_SW2
  D:00A8H         PUBLIC        IE
  D:00F7H         PUBLIC        PWMFDCR
  D:00B8H         PUBLIC        IP
  C:4124H         PUBLIC        _close_PWM_N
  D:00D8H         PUBLIC        CCON
  C:4862H         PUBLIC        close_PWM_ALL
  C:1600H         PUBLIC        _PWM_Inilize
  X:03A8H         SYMBOL        PWM_N_INFO
  D:0098H         PUBLIC        SCON
  D:0088H         PUBLIC        TCON
BL51 BANKED LINKER/LOCATER V6.00                                                      07/18/2017  19:52:09  PAGE 55


  C:4036H         PUBLIC        _open_PWM_N
  D:00F0H         PUBLIC        B
  C:4858H         PUBLIC        open_PWM_ALL
  D:00F1H         PUBLIC        PWMCFG
  D:00E0H         PUBLIC        ACC
  C:4766H         PUBLIC        _get_PWM_N_state
  C:2CC2H         PUBLIC        _set_PWM_duty
  C:46A4H         SYMBOL        _PWM_SET_PERIOD
  C:4624H         PUBLIC        _get_PWM_N_duty
  D:00D0H         PUBLIC        PSW
  C:47BCH         PUBLIC        _getPWM_DIV
  -------         PROC          _PWM_INILIZE
  X:0310H         SYMBOL        PWM_N
  D:0001H         SYMBOL        PWMx
  -------         DO            
  X:0311H         SYMBOL        i
  -------         ENDDO         
  C:1600H         LINE#         44
  C:1605H         LINE#         45
  C:1605H         LINE#         46
  C:1608H         LINE#         47
  C:1612H         LINE#         48
  C:1612H         LINE#         49
  C:1627H         LINE#         50
  C:163BH         LINE#         51
  C:1650H         LINE#         52
  C:1664H         LINE#         53
  C:166CH         LINE#         55
  C:166FH         LINE#         56
  C:1675H         LINE#         57
  C:1675H         LINE#         58
  C:1678H         LINE#         59
  C:167AH         LINE#         61
  C:167AH         LINE#         62
  C:167DH         LINE#         63
  C:167DH         LINE#         64
  C:1686H         LINE#         65
  C:1686H         LINE#         66
  C:1698H         LINE#         67
  C:169AH         LINE#         69
  C:169AH         LINE#         70
  C:16ADH         LINE#         71
  C:16ADH         LINE#         72
  C:16B6H         LINE#         73
  C:16B6H         LINE#         74
  C:16B9H         LINE#         75
  C:16BBH         LINE#         77
  C:16BBH         LINE#         78
  C:16BEH         LINE#         79
  C:16BEH         LINE#         80
  C:16C7H         LINE#         81
  C:16C7H         LINE#         82
  C:16D9H         LINE#         83
  C:16DBH         LINE#         85
  C:16DBH         LINE#         86
  C:16EEH         LINE#         87
  C:16EEH         LINE#         88
BL51 BANKED LINKER/LOCATER V6.00                                                      07/18/2017  19:52:09  PAGE 56


  C:16F7H         LINE#         89
  C:16F7H         LINE#         90
  C:16FAH         LINE#         91
  C:16FCH         LINE#         93
  C:16FCH         LINE#         94
  C:16FFH         LINE#         95
  C:16FFH         LINE#         96
  C:1708H         LINE#         97
  C:1708H         LINE#         98
  C:170BH         LINE#         99
  C:170DH         LINE#         101
  C:170DH         LINE#         102
  C:1710H         LINE#         103
  C:1710H         LINE#         104
  C:1719H         LINE#         105
  C:1719H         LINE#         106
  C:171CH         LINE#         107
  C:171EH         LINE#         109
  C:171EH         LINE#         110
  C:1721H         LINE#         111
  C:1721H         LINE#         112
  C:172AH         LINE#         113
  C:172AH         LINE#         114
  C:172DH         LINE#         115
  C:172FH         LINE#         117
  C:172FH         LINE#         118
  C:1732H         LINE#         119
  C:1732H         LINE#         120
  C:173BH         LINE#         121
  C:173BH         LINE#         122
  C:173EH         LINE#         123
  C:1740H         LINE#         125
  C:1740H         LINE#         126
  C:1743H         LINE#         127
  C:1743H         LINE#         129
  C:174EH         LINE#         130
  C:174EH         LINE#         131
  C:1752H         LINE#         132
  C:1754H         LINE#         134
  C:1754H         LINE#         135
  C:1758H         LINE#         136
  C:1758H         LINE#         138
  C:176FH         LINE#         139
  C:1795H         LINE#         140
  C:1795H         LINE#         141
  C:1795H         LINE#         142
  C:1795H         LINE#         143
  C:17A0H         LINE#         144
  C:17A0H         LINE#         145
  C:17A4H         LINE#         146
  C:17A6H         LINE#         148
  C:17A6H         LINE#         149
  C:17AAH         LINE#         150
  C:17AAH         LINE#         151
  C:17B6H         LINE#         152
  C:17B6H         LINE#         153
  C:17BAH         LINE#         154
BL51 BANKED LINKER/LOCATER V6.00                                                      07/18/2017  19:52:09  PAGE 57


  C:17BCH         LINE#         156
  C:17BCH         LINE#         157
  C:17C0H         LINE#         158
  C:17C0H         LINE#         159
  C:17CCH         LINE#         160
  C:17CCH         LINE#         161
  C:17D0H         LINE#         162
  C:17D2H         LINE#         164
  C:17D2H         LINE#         165
  C:17D6H         LINE#         166
  C:17D6H         LINE#         167
  C:17E2H         LINE#         168
  C:17E2H         LINE#         169
  C:17E2H         LINE#         170
  C:17E5H         LINE#         172
  C:17E5H         LINE#         173
  C:17E5H         LINE#         174
  C:17E5H         LINE#         175
  C:17E5H         LINE#         176
  C:17E8H         LINE#         177
  C:17E8H         LINE#         178
  C:17E8H         LINE#         179
  C:17F3H         LINE#         180
  C:17F3H         LINE#         181
  C:17F7H         LINE#         182
  C:17F9H         LINE#         184
  C:17F9H         LINE#         185
  C:17FDH         LINE#         186
  C:17FDH         LINE#         187
  C:1809H         LINE#         188
  C:1809H         LINE#         189
  C:180DH         LINE#         190
  C:180FH         LINE#         192
  C:180FH         LINE#         193
  C:1813H         LINE#         194
  C:1813H         LINE#         195
  C:181FH         LINE#         196
  C:181FH         LINE#         197
  C:1823H         LINE#         198
  C:1825H         LINE#         200
  C:1825H         LINE#         201
  C:1829H         LINE#         202
  C:1829H         LINE#         203
  C:1835H         LINE#         204
  C:1835H         LINE#         205
  C:1835H         LINE#         206
  C:1838H         LINE#         208
  C:1838H         LINE#         209
  C:1838H         LINE#         210
  C:1838H         LINE#         211
  C:1838H         LINE#         212
  C:183BH         LINE#         213
  C:183BH         LINE#         214
  C:183BH         LINE#         215
  C:1846H         LINE#         216
  C:1846H         LINE#         217
  C:184AH         LINE#         218
BL51 BANKED LINKER/LOCATER V6.00                                                      07/18/2017  19:52:09  PAGE 58


  C:184CH         LINE#         220
  C:184CH         LINE#         221
  C:1850H         LINE#         222
  C:1850H         LINE#         223
  C:185CH         LINE#         224
  C:185CH         LINE#         225
  C:1860H         LINE#         226
  C:1862H         LINE#         228
  C:1862H         LINE#         229
  C:1866H         LINE#         230
  C:1866H         LINE#         231
  C:1872H         LINE#         232
  C:1872H         LINE#         233
  C:1876H         LINE#         234
  C:1878H         LINE#         236
  C:1878H         LINE#         237
  C:187CH         LINE#         238
  C:187CH         LINE#         239
  C:1888H         LINE#         240
  C:1888H         LINE#         241
  C:1888H         LINE#         242
  C:188BH         LINE#         244
  C:188BH         LINE#         245
  C:188BH         LINE#         246
  C:188BH         LINE#         247
  C:188BH         LINE#         248
  C:188EH         LINE#         249
  C:188EH         LINE#         250
  C:188EH         LINE#         251
  C:1899H         LINE#         252
  C:1899H         LINE#         253
  C:189DH         LINE#         254
  C:189FH         LINE#         256
  C:189FH         LINE#         257
  C:18A3H         LINE#         258
  C:18A3H         LINE#         259
  C:18AFH         LINE#         260
  C:18AFH         LINE#         261
  C:18B3H         LINE#         262
  C:18B5H         LINE#         264
  C:18B5H         LINE#         265
  C:18B9H         LINE#         266
  C:18B9H         LINE#         267
  C:18C5H         LINE#         268
  C:18C5H         LINE#         269
  C:18C9H         LINE#         270
  C:18CBH         LINE#         272
  C:18CBH         LINE#         273
  C:18CFH         LINE#         274
  C:18CFH         LINE#         275
  C:18DBH         LINE#         276
  C:18DBH         LINE#         277
  C:18DBH         LINE#         278
  C:18DEH         LINE#         280
  C:18DEH         LINE#         281
  C:18DEH         LINE#         282
  C:18DEH         LINE#         283
BL51 BANKED LINKER/LOCATER V6.00                                                      07/18/2017  19:52:09  PAGE 59


  C:18DEH         LINE#         284
  C:18E1H         LINE#         285
  C:18E1H         LINE#         286
  C:18E1H         LINE#         287
  C:18ECH         LINE#         288
  C:18ECH         LINE#         289
  C:18F0H         LINE#         290
  C:18F2H         LINE#         292
  C:18F2H         LINE#         293
  C:18F6H         LINE#         294
  C:18F6H         LINE#         295
  C:1902H         LINE#         296
  C:1902H         LINE#         297
  C:1906H         LINE#         298
  C:1908H         LINE#         300
  C:1908H         LINE#         301
  C:190CH         LINE#         302
  C:190CH         LINE#         303
  C:1918H         LINE#         304
  C:1918H         LINE#         305
  C:191CH         LINE#         306
  C:191EH         LINE#         308
  C:191EH         LINE#         309
  C:1922H         LINE#         310
  C:1922H         LINE#         311
  C:192EH         LINE#         312
  C:192EH         LINE#         313
  C:192EH         LINE#         314
  C:1930H         LINE#         316
  C:1930H         LINE#         317
  C:1930H         LINE#         318
  C:1930H         LINE#         319
  C:1930H         LINE#         320
  C:1932H         LINE#         321
  C:1932H         LINE#         322
  C:1932H         LINE#         323
  C:193DH         LINE#         324
  C:193DH         LINE#         325
  C:1941H         LINE#         326
  C:1943H         LINE#         328
  C:1943H         LINE#         329
  C:1947H         LINE#         330
  C:1947H         LINE#         331
  C:1953H         LINE#         332
  C:1953H         LINE#         333
  C:1957H         LINE#         334
  C:1959H         LINE#         336
  C:1959H         LINE#         337
  C:195DH         LINE#         338
  C:195DH         LINE#         339
  C:1969H         LINE#         340
  C:1969H         LINE#         341
  C:196DH         LINE#         342
  C:196FH         LINE#         344
  C:196FH         LINE#         345
  C:1973H         LINE#         346
  C:1973H         LINE#         347
BL51 BANKED LINKER/LOCATER V6.00                                                      07/18/2017  19:52:09  PAGE 60


  C:197FH         LINE#         348
  C:197FH         LINE#         349
  C:1983H         LINE#         350
  C:1985H         LINE#         352
  C:1985H         LINE#         353
  C:1989H         LINE#         354
  C:1989H         LINE#         355
  C:1989H         LINE#         356
  C:1989H         LINE#         357
  C:1989H         LINE#         359
  C:1989H         LINE#         360
  C:1989H         LINE#         361
  C:1992H         LINE#         362
  C:1992H         LINE#         363
  C:1995H         LINE#         364
  C:1996H         LINE#         366
  C:1996H         LINE#         367
  C:1999H         LINE#         368
  C:1999H         LINE#         369
  -------         ENDPROC       _PWM_INILIZE
  -------         PROC          _GET_PWM_PERIOD
  D:0007H         SYMBOL        PWM_N
  C:460AH         LINE#         378
  C:460AH         LINE#         379
  C:460AH         LINE#         380
  C:4623H         LINE#         381
  -------         ENDPROC       _GET_PWM_PERIOD
  -------         PROC          _GET_PWM_N_DUTY
  D:0007H         SYMBOL        PWM_N
  C:4624H         LINE#         390
  C:4624H         LINE#         391
  C:4624H         LINE#         392
  C:463DH         LINE#         393
  -------         ENDPROC       _GET_PWM_N_DUTY
  -------         PROC          _SET_PWM_PERIOD
  D:0003H         SYMBOL        PWM_N
  X:0310H         SYMBOL        Hz
  C:3B24H         LINE#         407
  C:3B2EH         LINE#         408
  C:3B2EH         LINE#         409
  C:3B4AH         LINE#         410
  C:3B4DH         LINE#         411
  C:3B50H         LINE#         412
  C:3B81H         LINE#         413
  C:3B84H         LINE#         416
  -------         ENDPROC       _SET_PWM_PERIOD
  -------         PROC          _SET_PWM_DUTY
  X:031DH         SYMBOL        PWM_N
  X:031EH         SYMBOL        duty
  C:2CC2H         LINE#         431
  C:2CC7H         LINE#         432
  C:2CC7H         LINE#         433
  C:2CE2H         LINE#         434
  C:2CE2H         LINE#         435
  C:2CECH         LINE#         436
  C:2CECH         LINE#         437
  C:2D07H         LINE#         438
BL51 BANKED LINKER/LOCATER V6.00                                                      07/18/2017  19:52:09  PAGE 61


  C:2D07H         LINE#         439
  C:2D11H         LINE#         440
  C:2D11H         LINE#         441
  C:2D34H         LINE#         442
  C:2D37H         LINE#         443
  C:2DCDH         LINE#         444
  C:2DD0H         LINE#         445
  -------         ENDPROC       _SET_PWM_DUTY
  -------         PROC          _SETPWM_DIV
  D:0007H         SYMBOL        PWM_N
  D:0005H         SYMBOL        DIV
  C:47ABH         LINE#         455
  C:47ABH         LINE#         456
  C:47ABH         LINE#         457
  C:47BBH         LINE#         458
  -------         ENDPROC       _SETPWM_DIV
  -------         PROC          _GETPWM_DIV
  D:0007H         SYMBOL        PWM_N
  C:47BCH         LINE#         459
  C:47BCH         LINE#         460
  C:47BCH         LINE#         461
  C:47CCH         LINE#         462
  -------         ENDPROC       _GETPWM_DIV
  -------         PROC          OPEN_PWM_ALL
  C:4858H         LINE#         463
  C:4858H         LINE#         464
  C:4858H         LINE#         465
  C:485BH         LINE#         466
  C:485EH         LINE#         467
  C:4861H         LINE#         468
  -------         ENDPROC       OPEN_PWM_ALL
  -------         PROC          CLOSE_PWM_ALL
  C:4862H         LINE#         469
  C:4862H         LINE#         470
  C:4862H         LINE#         471
  C:4865H         LINE#         472
  C:4868H         LINE#         473
  C:486BH         LINE#         475
  -------         ENDPROC       CLOSE_PWM_ALL
  -------         PROC          _OPEN_PWM_N
  D:0007H         SYMBOL        PWM_N
  C:4036H         LINE#         476
  C:4036H         LINE#         477
  C:4036H         LINE#         478
  C:4039H         LINE#         479
  C:4046H         LINE#         480
  C:4057H         LINE#         481
  C:405AH         LINE#         482
  C:405DH         LINE#         485
  -------         ENDPROC       _OPEN_PWM_N
  -------         PROC          _CLOSE_PWM_N
  D:0007H         SYMBOL        PWM_N
  C:4124H         LINE#         486
  C:4124H         LINE#         487
  C:4124H         LINE#         488
  C:4127H         LINE#         489
  C:4135H         LINE#         490
BL51 BANKED LINKER/LOCATER V6.00                                                      07/18/2017  19:52:09  PAGE 62


  C:4145H         LINE#         491
  C:4148H         LINE#         493
  -------         ENDPROC       _CLOSE_PWM_N
  -------         PROC          _GET_PWM_N_STATE
  D:0007H         SYMBOL        PWM_N
  C:4766H         LINE#         494
  C:4766H         LINE#         495
  C:4766H         LINE#         497
  C:4777H         LINE#         498
  -------         ENDPROC       _GET_PWM_N_STATE
  -------         PROC          _PWM_SET_PERIOD
  D:0006H         SYMBOL        period
  C:46A4H         LINE#         510
  C:46A4H         LINE#         511
  C:46A4H         LINE#         512
  C:46ACH         LINE#         513
  C:46ACH         LINE#         514
  C:46B1H         LINE#         515
  C:46B6H         LINE#         516
  C:46B9H         LINE#         517
  C:46B9H         LINE#         519
  C:46B9H         LINE#         520
  C:46BBH         LINE#         521
  C:46BBH         LINE#         522
  -------         ENDPROC       _PWM_SET_PERIOD
  -------         PROC          _PWM_SET_T12_PERIOD
  D:0007H         SYMBOL        PWM_N
  D:0004H         SYMBOL        period1
  D:0002H         SYMBOL        period2
  C:35F4H         LINE#         535
  C:35F4H         LINE#         536
  C:35F4H         LINE#         537
  C:360BH         LINE#         538
  C:360BH         LINE#         539
  C:360BH         LINE#         540
  C:3610H         LINE#         541
  C:3615H         LINE#         542
  C:361AH         LINE#         543
  C:361EH         LINE#         544
  C:3620H         LINE#         545
  C:3620H         LINE#         546
  C:3620H         LINE#         547
  C:3625H         LINE#         548
  C:362AH         LINE#         549
  C:362FH         LINE#         550
  C:3633H         LINE#         551
  C:3635H         LINE#         552
  C:3635H         LINE#         553
  C:3635H         LINE#         554
  C:363AH         LINE#         555
  C:363FH         LINE#         556
  C:3644H         LINE#         557
  C:3648H         LINE#         558
  C:364AH         LINE#         559
  C:364AH         LINE#         560
  C:364AH         LINE#         561
  C:364FH         LINE#         562
BL51 BANKED LINKER/LOCATER V6.00                                                      07/18/2017  19:52:09  PAGE 63


  C:3654H         LINE#         563
  C:3659H         LINE#         564
  C:365DH         LINE#         565
  C:365FH         LINE#         566
  C:365FH         LINE#         567
  C:365FH         LINE#         568
  C:3664H         LINE#         569
  C:3669H         LINE#         570
  C:366EH         LINE#         571
  C:3672H         LINE#         572
  C:3674H         LINE#         573
  C:3674H         LINE#         574
  C:3674H         LINE#         575
  C:3679H         LINE#         576
  C:367EH         LINE#         577
  C:3683H         LINE#         578
  C:3688H         LINE#         579
  C:368BH         LINE#         580
  C:368BH         LINE#         581
  C:368BH         LINE#         582
  C:368DH         LINE#         583
  C:368DH         LINE#         584
  C:368DH         LINE#         585
  -------         ENDPROC       _PWM_SET_T12_PERIOD
  -------         ENDMOD        STC15_PWM

  -------         MODULE        TIMER
  C:0000H         SYMBOL        _ICE_DUMMY_
  D:0080H         PUBLIC        P0
  D:0090H         PUBLIC        P1
  D:00A0H         PUBLIC        P2
  D:00B0H         PUBLIC        P3
  D:00C0H         PUBLIC        P4
  C:3DF1H         SYMBOL        timer3_int
  C:3E39H         SYMBOL        Timer1_ISR
  D:00C8H         PUBLIC        P5
  C:37A8H         SYMBOL        timer4_int
  B:00A8H.7       PUBLIC        EA
  D:00E8H         PUBLIC        P6
  D:00F8H         PUBLIC        P7
  X:046AH         SYMBOL        minutes
  X:046BH         SYMBOL        millis
  D:00A8H         PUBLIC        IE
  C:42F7H         PUBLIC        _restartTimer
  X:046DH         SYMBOL        micros
  C:4899H         PUBLIC        getSeconds
  D:00B8H         PUBLIC        IP
  C:463EH         PUBLIC        _getTimerout
  D:00D8H         PUBLIC        CCON
  C:489FH         PUBLIC        getMinutes
  C:4875H         PUBLIC        getMillis
  X:046FH         SYMBOL        days
  C:486CH         PUBLIC        getMicros
  X:0470H         SYMBOL        hours
  D:0098H         PUBLIC        SCON
  D:0089H         PUBLIC        TMOD
  D:0088H         PUBLIC        TCON
BL51 BANKED LINKER/LOCATER V6.00                                                      07/18/2017  19:52:09  PAGE 64


  C:4375H         PUBLIC        _isExpiredTimer
  X:0471H         PUBLIC        Timer1_state
  C:4149H         PUBLIC        _setTimeout
  X:0472H         PUBLIC        Timer2_state
  C:321BH         PUBLIC        timerInit
  C:1F70H         SYMBOL        _Timer_Inilize
  D:00AFH         PUBLIC        IE2
  C:4394H         PUBLIC        _isStopped
  D:00F0H         PUBLIC        B
  D:008EH         PUBLIC        AUXR
  C:4428H         PUBLIC        _isActiveTimer
  D:00E0H         PUBLIC        ACC
  B:00A8H.1       PUBLIC        ET0
  B:00A8H.3       PUBLIC        ET1
  D:008CH         PUBLIC        TH0
  C:481AH         PUBLIC        _onRestartTimer
  C:468BH         PUBLIC        _stopTimer
  D:008DH         PUBLIC        TH1
  X:0473H         SYMBOL        Timer1_temp
  D:00D6H         PUBLIC        TH2
  X:0475H         SYMBOL        Timer2_temp
  D:00D4H         PUBLIC        TH3
  D:00D2H         PUBLIC        TH4
  D:008AH         PUBLIC        TL0
  D:008BH         PUBLIC        TL1
  D:00D7H         PUBLIC        TL2
  D:00D5H         PUBLIC        TL3
  B:00B8H.1       PUBLIC        PT0
  D:00D3H         PUBLIC        TL4
  C:48ABH         PUBLIC        getDays
  B:00B8H.3       PUBLIC        PT1
  C:48A5H         PUBLIC        getHours
  B:0088H.4       PUBLIC        TR0
  C:4658H         PUBLIC        _getTimerHertz
  B:0088H.6       PUBLIC        TR1
  D:00D1H         PUBLIC        T4T3M
  X:0477H         PUBLIC        timer1_struct
  X:047BH         PUBLIC        timer2_struct
  C:44B5H         PUBLIC        _setTimerHertz
  X:047FH         SYMBOL        seconds
  D:008FH         PUBLIC        INT_CLKO
  D:00D0H         PUBLIC        PSW
  -------         PROC          TIMERINIT
  -------         DO            
  X:04A7H         SYMBOL        TIM_InitStructure1
  X:04AFH         SYMBOL        TIM_InitStructure2
  X:04B7H         SYMBOL        Error_Code
  -------         ENDDO         
  C:321BH         LINE#         74
  C:321BH         LINE#         75
  C:321BH         LINE#         78
  C:3220H         LINE#         80
  C:3224H         LINE#         82
  C:3226H         LINE#         83
  C:3229H         LINE#         84
  C:322CH         LINE#         85
  C:322EH         LINE#         86
BL51 BANKED LINKER/LOCATER V6.00                                                      07/18/2017  19:52:09  PAGE 65


  C:3232H         LINE#         87
  C:323CH         LINE#         89
  C:3241H         LINE#         91
  C:3243H         LINE#         92
  C:3246H         LINE#         93
  C:3249H         LINE#         94
  C:324BH         LINE#         95
  C:3250H         LINE#         96
  C:325AH         LINE#         99
  C:3266H         LINE#         100
  C:3266H         LINE#         101
  C:326CH         LINE#         102
  C:326EH         LINE#         103
  C:3272H         LINE#         104
  C:3272H         LINE#         105
  C:3272H         LINE#         106
  C:3272H         LINE#         108
  C:3272H         LINE#         109
  C:327BH         LINE#         110
  C:327BH         LINE#         113
  C:3287H         LINE#         114
  C:3287H         LINE#         115
  C:328DH         LINE#         116
  C:328FH         LINE#         117
  C:3293H         LINE#         118
  C:3293H         LINE#         119
  C:3293H         LINE#         120
  C:3293H         LINE#         122
  C:3293H         LINE#         123
  C:329CH         LINE#         124
  C:329CH         LINE#         126
  C:32AEH         LINE#         127
  C:32AEH         LINE#         128
  C:32B4H         LINE#         129
  C:32B6H         LINE#         130
  C:32BAH         LINE#         131
  C:32BAH         LINE#         132
  C:32BAH         LINE#         133
  C:32BAH         LINE#         135
  C:32BAH         LINE#         136
  C:32C3H         LINE#         137
  C:32C3H         LINE#         141
  -------         ENDPROC       TIMERINIT
  -------         PROC          _SETTIMEOUT
  D:0007H         SYMBOL        whichTimer
  D:0004H         SYMBOL        time
  C:4149H         LINE#         153
  C:4149H         LINE#         154
  C:4149H         LINE#         155
  C:4153H         LINE#         156
  C:4153H         LINE#         157
  C:415BH         LINE#         158
  C:415BH         LINE#         160
  C:415BH         LINE#         161
  C:415BH         LINE#         162
  C:4163H         LINE#         163
  C:4163H         LINE#         164
BL51 BANKED LINKER/LOCATER V6.00                                                      07/18/2017  19:52:09  PAGE 66


  C:4163H         LINE#         165
  C:4163H         LINE#         166
  C:416DH         LINE#         167
  C:416DH         LINE#         168
  C:416DH         LINE#         169
  C:416DH         LINE#         170
  C:416DH         LINE#         171
  C:416DH         LINE#         172
  -------         ENDPROC       _SETTIMEOUT
  -------         PROC          _GETTIMEROUT
  D:0007H         SYMBOL        whichTimer
  C:463EH         LINE#         181
  C:463EH         LINE#         182
  C:463EH         LINE#         183
  C:4646H         LINE#         184
  C:4646H         LINE#         186
  C:4646H         LINE#         187
  C:4646H         LINE#         188
  C:464BH         LINE#         189
  C:464BH         LINE#         190
  C:464BH         LINE#         191
  C:464BH         LINE#         192
  C:464BH         LINE#         193
  C:4654H         LINE#         194
  C:4654H         LINE#         195
  C:4654H         LINE#         197
  C:4657H         LINE#         198
  C:4657H         LINE#         200
  -------         ENDPROC       _GETTIMEROUT
  -------         PROC          _SETTIMERHERTZ
  D:0007H         SYMBOL        whichTimer
  D:0004H         SYMBOL        Hz
  C:44B5H         LINE#         211
  C:44B5H         LINE#         212
  C:44B5H         LINE#         213
  C:44BDH         LINE#         214
  C:44BDH         LINE#         216
  C:44BDH         LINE#         217
  C:44BDH         LINE#         218
  C:44C5H         LINE#         219
  C:44C5H         LINE#         220
  C:44C6H         LINE#         221
  C:44C6H         LINE#         222
  C:44C6H         LINE#         223
  C:44D0H         LINE#         224
  C:44D0H         LINE#         225
  C:44D0H         LINE#         227
  C:44D0H         LINE#         230
  -------         ENDPROC       _SETTIMERHERTZ
  -------         PROC          _GETTIMERHERTZ
  D:0007H         SYMBOL        whichTimer
  C:4658H         LINE#         231
  C:4658H         LINE#         232
  C:4658H         LINE#         233
  C:4660H         LINE#         234
  C:4660H         LINE#         236
  C:4660H         LINE#         237
BL51 BANKED LINKER/LOCATER V6.00                                                      07/18/2017  19:52:09  PAGE 67


  C:4660H         LINE#         238
  C:4660H         LINE#         239
  C:4665H         LINE#         240
  C:4665H         LINE#         241
  C:4665H         LINE#         242
  C:4665H         LINE#         243
  C:4665H         LINE#         244
  C:466EH         LINE#         245
  C:466EH         LINE#         246
  C:466EH         LINE#         247
  C:4671H         LINE#         248
  C:4671H         LINE#         249
  -------         ENDPROC       _GETTIMERHERTZ
  -------         PROC          _STOPTIMER
  D:0007H         SYMBOL        whichTimer
  C:468BH         LINE#         259
  C:468BH         LINE#         260
  C:468BH         LINE#         261
  C:4693H         LINE#         262
  C:4693H         LINE#         263
  C:4693H         LINE#         264
  C:4693H         LINE#         265
  C:4695H         LINE#         266
  C:4698H         LINE#         268
  C:4698H         LINE#         269
  C:469AH         LINE#         270
  C:469AH         LINE#         271
  C:469AH         LINE#         272
  C:469DH         LINE#         273
  C:46A3H         LINE#         275
  C:46A3H         LINE#         276
  C:46A3H         LINE#         277
  C:46A3H         LINE#         279
  -------         ENDPROC       _STOPTIMER
  -------         PROC          _ISACTIVETIMER
  D:0007H         SYMBOL        whichTimer
  C:4428H         LINE#         289
  C:4428H         LINE#         290
  C:4428H         LINE#         291
  C:4430H         LINE#         292
  C:4430H         LINE#         293
  C:4430H         LINE#         294
  C:4430H         LINE#         295
  C:443AH         LINE#         297
  C:443AH         LINE#         298
  C:443AH         LINE#         299
  C:443AH         LINE#         300
  C:4444H         LINE#         302
  C:4444H         LINE#         303
  C:4444H         LINE#         304
  C:4444H         LINE#         305
  -------         ENDPROC       _ISACTIVETIMER
  -------         PROC          _ISEXPIREDTIMER
  D:0007H         SYMBOL        whichTimer
  C:4375H         LINE#         315
  C:4375H         LINE#         316
  C:4375H         LINE#         317
BL51 BANKED LINKER/LOCATER V6.00                                                      07/18/2017  19:52:09  PAGE 68


  C:437DH         LINE#         318
  C:437DH         LINE#         319
  C:437DH         LINE#         320
  C:437DH         LINE#         321
  C:4388H         LINE#         322
  C:4388H         LINE#         323
  C:4388H         LINE#         324
  C:4388H         LINE#         325
  C:4393H         LINE#         326
  C:4393H         LINE#         327
  C:4393H         LINE#         328
  C:4393H         LINE#         331
  -------         ENDPROC       _ISEXPIREDTIMER
  -------         PROC          _ISSTOPPED
  D:0007H         SYMBOL        whichtimer
  C:4394H         LINE#         341
  C:4394H         LINE#         342
  C:4394H         LINE#         343
  C:439CH         LINE#         344
  C:439CH         LINE#         345
  C:439CH         LINE#         346
  C:439CH         LINE#         347
  C:43A7H         LINE#         348
  C:43A7H         LINE#         349
  C:43A7H         LINE#         350
  C:43A7H         LINE#         351
  C:43B2H         LINE#         352
  C:43B2H         LINE#         353
  C:43B2H         LINE#         354
  C:43B2H         LINE#         355
  -------         ENDPROC       _ISSTOPPED
  -------         PROC          _RESTARTTIMER
  D:0006H         SYMBOL        whichTimer
  C:42F7H         LINE#         366
  C:42F9H         LINE#         367
  C:42F9H         LINE#         368
  C:42FEH         LINE#         369
  C:42FEH         LINE#         370
  C:4306H         LINE#         371
  C:4306H         LINE#         372
  C:4306H         LINE#         373
  C:4306H         LINE#         374
  C:4308H         LINE#         375
  C:430DH         LINE#         376
  C:430DH         LINE#         377
  C:430EH         LINE#         378
  C:430EH         LINE#         379
  C:430EH         LINE#         380
  C:4311H         LINE#         381
  C:4316H         LINE#         382
  C:4316H         LINE#         383
  C:4316H         LINE#         384
  C:4316H         LINE#         385
  C:4316H         LINE#         386
  C:4316H         LINE#         390
  C:4316H         LINE#         391
  -------         ENDPROC       _RESTARTTIMER
BL51 BANKED LINKER/LOCATER V6.00                                                      07/18/2017  19:52:09  PAGE 69


  -------         PROC          _ONRESTARTTIMER
  D:0006H         SYMBOL        whichTimer
  C:481AH         LINE#         401
  C:481CH         LINE#         402
  C:481CH         LINE#         403
  C:4821H         LINE#         404
  C:4821H         LINE#         405
  C:4824H         LINE#         406
  C:4826H         LINE#         407
  C:4826H         LINE#         409
  C:4826H         LINE#         410
  C:4827H         LINE#         411
  C:4827H         LINE#         413
  -------         ENDPROC       _ONRESTARTTIMER
  -------         PROC          GETMICROS
  C:486CH         LINE#         417
  C:486CH         LINE#         418
  C:486CH         LINE#         420
  C:4874H         LINE#         421
  -------         ENDPROC       GETMICROS
  -------         PROC          GETMILLIS
  C:4875H         LINE#         423
  C:4875H         LINE#         424
  C:4875H         LINE#         425
  C:487DH         LINE#         426
  -------         ENDPROC       GETMILLIS
  -------         PROC          GETSECONDS
  C:4899H         LINE#         427
  C:4899H         LINE#         428
  C:4899H         LINE#         429
  C:489EH         LINE#         430
  -------         ENDPROC       GETSECONDS
  -------         PROC          GETMINUTES
  C:489FH         LINE#         431
  C:489FH         LINE#         432
  C:489FH         LINE#         433
  C:48A4H         LINE#         434
  -------         ENDPROC       GETMINUTES
  -------         PROC          GETHOURS
  C:48A5H         LINE#         435
  C:48A5H         LINE#         436
  C:48A5H         LINE#         437
  C:48AAH         LINE#         438
  -------         ENDPROC       GETHOURS
  -------         PROC          GETDAYS
  C:48ABH         LINE#         439
  C:48ABH         LINE#         440
  C:48ABH         LINE#         441
  C:48B0H         LINE#         442
  -------         ENDPROC       GETDAYS
  -------         PROC          TIMER1_ISR
  C:3E39H         LINE#         446
  C:3E4AH         LINE#         449
  C:3E63H         LINE#         450
  C:3E63H         LINE#         451
  C:3E65H         LINE#         452
  C:3E6CH         LINE#         453
BL51 BANKED LINKER/LOCATER V6.00                                                      07/18/2017  19:52:09  PAGE 70


  C:3E71H         LINE#         454
  C:3E71H         LINE#         458
  -------         ENDPROC       TIMER1_ISR
  -------         PROC          TIMER3_INT
  C:3DF1H         LINE#         462
  C:3E02H         LINE#         464
  C:3E1BH         LINE#         465
  C:3E1BH         LINE#         466
  C:3E1EH         LINE#         467
  C:3E25H         LINE#         468
  C:3E2AH         LINE#         469
  C:3E2AH         LINE#         471
  -------         ENDPROC       TIMER3_INT
  -------         PROC          TIMER4_INT
  C:37A8H         LINE#         475
  C:37B9H         LINE#         479
  C:37BBH         LINE#         480
  C:37D0H         LINE#         481
  C:37D0H         LINE#         482
  C:37D7H         LINE#         483
  C:37EBH         LINE#         484
  C:37EBH         LINE#         485
  C:37F2H         LINE#         486
  C:37FCH         LINE#         487
  C:37FCH         LINE#         488
  C:37FEH         LINE#         489
  C:3808H         LINE#         490
  C:3808H         LINE#         491
  C:380AH         LINE#         492
  C:3814H         LINE#         493
  C:3814H         LINE#         494
  C:3816H         LINE#         495
  C:381FH         LINE#         496
  C:381FH         LINE#         497
  C:3821H         LINE#         498
  C:3821H         LINE#         500
  C:3821H         LINE#         501
  C:3821H         LINE#         503
  C:3821H         LINE#         504
  C:3821H         LINE#         505
  C:3821H         LINE#         507
  C:3823H         LINE#         508
  -------         ENDPROC       TIMER4_INT
  -------         PROC          L?0133
  -------         ENDPROC       L?0133
  -------         PROC          _TIMER_INILIZE
  D:0005H         SYMBOL        TIM
  D:0001H         SYMBOL        TIMx
  C:1F70H         LINE#         523
  C:1F72H         LINE#         524
  C:1F72H         LINE#         525
  C:1F7BH         LINE#         527
  C:1F7EH         LINE#         528
  C:1F7EH         LINE#         529
  C:1F8AH         LINE#         530
  C:1F8CH         LINE#         531
  C:1F8EH         LINE#         532
BL51 BANKED LINKER/LOCATER V6.00                                                      07/18/2017  19:52:09  PAGE 71


  C:1F90H         LINE#         533
  C:1F93H         LINE#         534
  C:1F96H         LINE#         535
  C:1F99H         LINE#         536
  C:1FA4H         LINE#         537
  C:1FAFH         LINE#         538
  C:1FB2H         LINE#         539
  C:1FBEH         LINE#         540
  C:1FC5H         LINE#         541
  C:1FD1H         LINE#         543
  C:1FDBH         LINE#         544
  C:1FE3H         LINE#         545
  C:1FEEH         LINE#         546
  C:1FF1H         LINE#         547
  C:1FF1H         LINE#         549
  C:1FF6H         LINE#         550
  C:1FF6H         LINE#         551
  C:2002H         LINE#         552
  C:2004H         LINE#         553
  C:2006H         LINE#         554
  C:2008H         LINE#         555
  C:200BH         LINE#         556
  C:200EH         LINE#         557
  C:2011H         LINE#         558
  C:201CH         LINE#         559
  C:2027H         LINE#         560
  C:202DH         LINE#         561
  C:2039H         LINE#         562
  C:2040H         LINE#         563
  C:204CH         LINE#         565
  C:2056H         LINE#         566
  C:205EH         LINE#         567
  C:2069H         LINE#         568
  C:206CH         LINE#         569
  C:206CH         LINE#         571
  C:2071H         LINE#         572
  C:2071H         LINE#         573
  C:2080H         LINE#         574
  C:2083H         LINE#         575
  C:2086H         LINE#         576
  C:2089H         LINE#         577
  C:2095H         LINE#         578
  C:209BH         LINE#         579
  C:20A7H         LINE#         580
  C:20B3H         LINE#         582
  C:20BDH         LINE#         583
  C:20C5H         LINE#         584
  C:20D1H         LINE#         585
  C:20D4H         LINE#         586
  C:20D4H         LINE#         588
  C:20D9H         LINE#         589
  C:20D9H         LINE#         590
  C:20E8H         LINE#         591
  C:20EBH         LINE#         592
  C:20EEH         LINE#         593
  C:20FAH         LINE#         594
  C:2100H         LINE#         595
BL51 BANKED LINKER/LOCATER V6.00                                                      07/18/2017  19:52:09  PAGE 72


  C:210CH         LINE#         596
  C:2118H         LINE#         598
  C:2122H         LINE#         599
  C:212AH         LINE#         600
  C:2136H         LINE#         601
  C:2139H         LINE#         602
  C:2139H         LINE#         604
  C:213EH         LINE#         605
  C:213EH         LINE#         606
  C:214DH         LINE#         607
  C:2150H         LINE#         608
  C:2153H         LINE#         609
  C:215FH         LINE#         610
  C:2165H         LINE#         611
  C:2171H         LINE#         612
  C:217DH         LINE#         614
  C:2189H         LINE#         615
  C:218BH         LINE#         616
  C:2197H         LINE#         617
  C:219AH         LINE#         618
  C:219AH         LINE#         620
  C:219CH         LINE#         621
  -------         ENDPROC       _TIMER_INILIZE
  -------         ENDMOD        TIMER

  -------         MODULE        USART1
  C:0000H         SYMBOL        _ICE_DUMMY_
  D:0080H         PUBLIC        P0
  D:0090H         PUBLIC        P1
  D:00A0H         PUBLIC        P2
  D:00B0H         PUBLIC        P3
  D:00C0H         PUBLIC        P4
  D:00C8H         PUBLIC        P5
  B:00A8H.7       PUBLIC        EA
  D:00E8H         PUBLIC        P6
  D:00F8H         PUBLIC        P7
  D:00A2H         PUBLIC        P_SW1
  D:00BAH         PUBLIC        P_SW2
  D:00A8H         PUBLIC        IE
  X:0000H         PUBLIC        COM1
  X:0007H         PUBLIC        COM2
  X:000EH         PUBLIC        COM3
  X:0015H         PUBLIC        COM4
  B:00A8H.4       PUBLIC        ES
  D:00B8H         PUBLIC        IP
  X:001CH         PUBLIC        RX1_Buffer
  X:009CH         PUBLIC        RX2_Buffer
  B:0098H.0       PUBLIC        RI
  C:39C1H         PUBLIC        UART1_int
  X:011CH         PUBLIC        RX3_Buffer
  X:0138H         PUBLIC        TX1_Buffer
  C:3832H         PUBLIC        UART2_int
  X:01B8H         PUBLIC        RX4_Buffer
  X:01D4H         PUBLIC        TX2_Buffer
  B:0098H.1       PUBLIC        TI
  C:38B7H         PUBLIC        UART3_int
  X:0254H         PUBLIC        TX3_Buffer
BL51 BANKED LINKER/LOCATER V6.00                                                      07/18/2017  19:52:09  PAGE 73


  C:393CH         PUBLIC        UART4_int
  X:0270H         PUBLIC        TX4_Buffer
  B:00B8H.4       PUBLIC        PS
  D:00D8H         PUBLIC        CCON
  D:0099H         PUBLIC        SBUF
  D:0087H         PUBLIC        PCON
  D:0098H         PUBLIC        SCON
  D:0089H         PUBLIC        TMOD
  D:0088H         PUBLIC        TCON
  C:46BCH         PUBLIC        _PrintString1
  C:46D3H         PUBLIC        _PrintString2
  C:46E6H         PUBLIC        _PrintString3
  C:46F9H         PUBLIC        _PrintString4
  D:00AFH         PUBLIC        IE2
  D:00F0H         PUBLIC        B
  D:008EH         PUBLIC        AUXR
  C:40FDH         PUBLIC        _TX1_write2buff
  C:405EH         PUBLIC        _TX2_write2buff
  C:4086H         PUBLIC        _TX3_write2buff
  D:00E0H         PUBLIC        ACC
  C:40AEH         PUBLIC        _TX4_write2buff
  B:00A8H.3       PUBLIC        ET1
  D:00B5H         PUBLIC        IP2
  D:008DH         PUBLIC        TH1
  D:00D6H         PUBLIC        TH2
  D:00D4H         PUBLIC        TH3
  D:00D2H         PUBLIC        TH4
  D:008BH         PUBLIC        TL1
  D:00D7H         PUBLIC        TL2
  C:0F20H         PUBLIC        _USART_Configuration
  D:00D5H         PUBLIC        TL3
  D:00D3H         PUBLIC        TL4
  B:0088H.6       PUBLIC        TR1
  D:00D1H         PUBLIC        T4T3M
  D:009BH         PUBLIC        S2BUF
  D:0097H         PUBLIC        PCON2
  D:00ADH         PUBLIC        S3BUF
  B:0098H.4       PUBLIC        REN
  D:0085H         PUBLIC        S4BUF
  D:009AH         PUBLIC        S2CON
  D:00ACH         PUBLIC        S3CON
  D:0084H         PUBLIC        S4CON
  D:008FH         PUBLIC        INT_CLKO
  D:00D0H         PUBLIC        PSW
  -------         PROC          _USART_CONFIGURATION
  X:030BH         SYMBOL        UARTx
  X:030CH         SYMBOL        COMx
  -------         DO            
  X:030FH         SYMBOL        i
  X:0310H         SYMBOL        j
  -------         ENDDO         
  C:0F20H         LINE#         25
  C:0F30H         LINE#         26
  C:0F30H         LINE#         30
  C:0F37H         LINE#         31
  C:0F37H         LINE#         32
  C:0F3CH         LINE#         33
BL51 BANKED LINKER/LOCATER V6.00                                                      07/18/2017  19:52:09  PAGE 74


  C:0F3FH         LINE#         34
  C:0F41H         LINE#         35
  C:0F43H         LINE#         36
  C:0F45H         LINE#         37
  C:0F47H         LINE#         38
  C:0F49H         LINE#         39
  C:0F6BH         LINE#         40
  C:0F8EH         LINE#         42
  C:0FA4H         LINE#         43
  C:0FB1H         LINE#         44
  C:0FB3H         LINE#         45
  C:0FBEH         LINE#         46
  C:0FCBH         LINE#         47
  C:0FCBH         LINE#         48
  C:0FE2H         LINE#         49
  C:0FFFH         LINE#         50
  C:1021H         LINE#         51
  C:1037H         LINE#         52
  C:1037H         LINE#         53
  C:1039H         LINE#         54
  C:103CH         LINE#         55
  C:103FH         LINE#         56
  C:1042H         LINE#         57
  C:1045H         LINE#         58
  C:105AH         LINE#         59
  C:1063H         LINE#         60
  C:1065H         LINE#         61
  C:1068H         LINE#         62
  C:106BH         LINE#         63
  C:106DH         LINE#         64
  C:106FH         LINE#         65
  C:1074H         LINE#         66
  C:1074H         LINE#         67
  C:1077H         LINE#         68
  C:107AH         LINE#         69
  C:107DH         LINE#         70
  C:1080H         LINE#         71
  C:1095H         LINE#         72
  C:109EH         LINE#         73
  C:10A1H         LINE#         74
  C:10A4H         LINE#         75
  C:10A7H         LINE#         76
  C:10A9H         LINE#         77
  C:10ACH         LINE#         78
  C:10ACH         LINE#         79
  C:10BDH         LINE#         80
  C:10BDH         LINE#         81
  C:10CBH         LINE#         82
  C:10CEH         LINE#         83
  C:10D0H         LINE#         84
  C:10D4H         LINE#         85
  C:10D4H         LINE#         86
  C:10E2H         LINE#         87
  C:10E5H         LINE#         88
  C:10E5H         LINE#         89
  C:10FDH         LINE#         90
  C:10FFH         LINE#         91
BL51 BANKED LINKER/LOCATER V6.00                                                      07/18/2017  19:52:09  PAGE 75


  C:110CH         LINE#         92
  C:110EH         LINE#         93
  C:111EH         LINE#         94
  C:112CH         LINE#         95
  C:112FH         LINE#         96
  C:1132H         LINE#         97
  C:1132H         LINE#         99
  C:113DH         LINE#         100
  C:113DH         LINE#         101
  C:1143H         LINE#         102
  C:1146H         LINE#         103
  C:1148H         LINE#         104
  C:114AH         LINE#         105
  C:114CH         LINE#         106
  C:114EH         LINE#         107
  C:1150H         LINE#         108
  C:1172H         LINE#         109
  C:1195H         LINE#         111
  C:11B0H         LINE#         112
  C:11B0H         LINE#         113
  C:11BEH         LINE#         114
  C:11C1H         LINE#         115
  C:11CCH         LINE#         116
  C:11CFH         LINE#         117
  C:11E6H         LINE#         118
  C:1203H         LINE#         119
  C:1225H         LINE#         120
  C:1228H         LINE#         121
  C:122BH         LINE#         122
  C:122EH         LINE#         123
  C:1243H         LINE#         124
  C:124CH         LINE#         125
  C:124FH         LINE#         126
  C:1252H         LINE#         127
  C:1254H         LINE#         128
  C:1257H         LINE#         129
  C:1270H         LINE#         130
  C:1273H         LINE#         131
  C:1281H         LINE#         132
  C:1284H         LINE#         133
  C:1294H         LINE#         134
  C:1294H         LINE#         136
  C:129FH         LINE#         137
  C:129FH         LINE#         138
  C:12A5H         LINE#         139
  C:12A8H         LINE#         140
  C:12AAH         LINE#         141
  C:12ACH         LINE#         142
  C:12AEH         LINE#         143
  C:12B0H         LINE#         144
  C:12B2H         LINE#         145
  C:12D4H         LINE#         146
  C:12F7H         LINE#         147
  C:1312H         LINE#         148
  C:1312H         LINE#         149
  C:1315H         LINE#         150
  C:131EH         LINE#         151
BL51 BANKED LINKER/LOCATER V6.00                                                      07/18/2017  19:52:09  PAGE 76


  C:1321H         LINE#         152
  C:1343H         LINE#         153
  C:1360H         LINE#         154
  C:1382H         LINE#         155
  C:1398H         LINE#         156
  C:1398H         LINE#         157
  C:139BH         LINE#         158
  C:139EH         LINE#         159
  C:13A1H         LINE#         160
  C:13A4H         LINE#         161
  C:13B9H         LINE#         162
  C:13C2H         LINE#         163
  C:13C5H         LINE#         164
  C:13C8H         LINE#         165
  C:13CAH         LINE#         166
  C:13CFH         LINE#         167
  C:13CFH         LINE#         168
  C:13D2H         LINE#         169
  C:13D5H         LINE#         170
  C:13D8H         LINE#         171
  C:13DBH         LINE#         172
  C:13DEH         LINE#         173
  C:13E1H         LINE#         174
  C:13F6H         LINE#         175
  C:13FFH         LINE#         176
  C:1402H         LINE#         177
  C:1404H         LINE#         178
  C:1407H         LINE#         179
  C:1407H         LINE#         180
  C:140AH         LINE#         181
  C:1423H         LINE#         182
  C:1426H         LINE#         183
  C:1434H         LINE#         184
  C:1437H         LINE#         185
  C:1444H         LINE#         186
  C:1447H         LINE#         188
  C:1447H         LINE#         190
  C:1452H         LINE#         191
  C:1452H         LINE#         192
  C:1458H         LINE#         193
  C:145BH         LINE#         194
  C:145DH         LINE#         195
  C:145FH         LINE#         196
  C:1461H         LINE#         197
  C:1463H         LINE#         198
  C:1465H         LINE#         199
  C:1487H         LINE#         200
  C:14AAH         LINE#         202
  C:14C5H         LINE#         203
  C:14C5H         LINE#         204
  C:14C8H         LINE#         205
  C:14D1H         LINE#         206
  C:14D4H         LINE#         207
  C:14F6H         LINE#         208
  C:1513H         LINE#         209
  C:1535H         LINE#         210
  C:154BH         LINE#         211
BL51 BANKED LINKER/LOCATER V6.00                                                      07/18/2017  19:52:09  PAGE 77


  C:154BH         LINE#         212
  C:154EH         LINE#         213
  C:1551H         LINE#         214
  C:1554H         LINE#         215
  C:1557H         LINE#         216
  C:156CH         LINE#         217
  C:1575H         LINE#         218
  C:1578H         LINE#         219
  C:157BH         LINE#         220
  C:157DH         LINE#         221
  C:1582H         LINE#         222
  C:1582H         LINE#         223
  C:1585H         LINE#         224
  C:1588H         LINE#         225
  C:158BH         LINE#         226
  C:158EH         LINE#         227
  C:1591H         LINE#         228
  C:1594H         LINE#         229
  C:15A9H         LINE#         230
  C:15B2H         LINE#         231
  C:15B5H         LINE#         232
  C:15B7H         LINE#         233
  C:15BAH         LINE#         234
  C:15BAH         LINE#         235
  C:15BDH         LINE#         236
  C:15D6H         LINE#         237
  C:15D9H         LINE#         238
  C:15E7H         LINE#         239
  C:15EAH         LINE#         240
  C:15FAH         LINE#         241
  C:15FDH         LINE#         242
  C:15FDH         LINE#         244
  C:15FFH         LINE#         245
  -------         ENDPROC       _USART_CONFIGURATION
  -------         PROC          _TX1_WRITE2BUFF
  D:0007H         SYMBOL        dat
  C:40FDH         LINE#         250
  C:40FDH         LINE#         251
  C:40FDH         LINE#         252
  C:410CH         LINE#         253
  C:4119H         LINE#         255
  C:411FH         LINE#         256
  C:411FH         LINE#         257
  C:4121H         LINE#         258
  C:4123H         LINE#         259
  C:4123H         LINE#         260
  -------         ENDPROC       _TX1_WRITE2BUFF
  -------         PROC          _TX2_WRITE2BUFF
  D:0007H         SYMBOL        dat
  C:405EH         LINE#         262
  C:405EH         LINE#         263
  C:405EH         LINE#         264
  C:406DH         LINE#         265
  C:407AH         LINE#         267
  C:4080H         LINE#         268
  C:4080H         LINE#         269
  C:4082H         LINE#         270
BL51 BANKED LINKER/LOCATER V6.00                                                      07/18/2017  19:52:09  PAGE 78


  C:4085H         LINE#         271
  C:4085H         LINE#         272
  -------         ENDPROC       _TX2_WRITE2BUFF
  -------         PROC          _TX3_WRITE2BUFF
  D:0007H         SYMBOL        dat
  C:4086H         LINE#         274
  C:4086H         LINE#         275
  C:4086H         LINE#         276
  C:4095H         LINE#         277
  C:40A2H         LINE#         279
  C:40A8H         LINE#         280
  C:40A8H         LINE#         281
  C:40AAH         LINE#         282
  C:40ADH         LINE#         283
  C:40ADH         LINE#         284
  -------         ENDPROC       _TX3_WRITE2BUFF
  -------         PROC          _TX4_WRITE2BUFF
  D:0007H         SYMBOL        dat
  C:40AEH         LINE#         286
  C:40AEH         LINE#         287
  C:40AEH         LINE#         288
  C:40BDH         LINE#         289
  C:40CAH         LINE#         291
  C:40D0H         LINE#         292
  C:40D0H         LINE#         293
  C:40D2H         LINE#         294
  C:40D5H         LINE#         295
  C:40D5H         LINE#         296
  -------         ENDPROC       _TX4_WRITE2BUFF
  -------         PROC          _PRINTSTRING1
  D:0001H         SYMBOL        puts
  C:46BCH         LINE#         298
  C:46BCH         LINE#         299
  C:46BCH         LINE#         300
  C:46BEH         LINE#         301
  C:46D0H         LINE#         302
  C:46D2H         LINE#         303
  -------         ENDPROC       _PRINTSTRING1
  -------         PROC          _PRINTSTRING2
  D:0001H         SYMBOL        puts
  C:46D3H         LINE#         305
  C:46D3H         LINE#         306
  C:46D3H         LINE#         307
  C:46E5H         LINE#         308
  -------         ENDPROC       _PRINTSTRING2
  -------         PROC          _PRINTSTRING3
  D:0001H         SYMBOL        puts
  C:46E6H         LINE#         310
  C:46E6H         LINE#         311
  C:46E6H         LINE#         312
  C:46F8H         LINE#         313
  -------         ENDPROC       _PRINTSTRING3
  -------         PROC          _PRINTSTRING4
  D:0001H         SYMBOL        puts
  C:46F9H         LINE#         315
  C:46F9H         LINE#         316
  C:46F9H         LINE#         317
BL51 BANKED LINKER/LOCATER V6.00                                                      07/18/2017  19:52:09  PAGE 79


  C:470BH         LINE#         318
  -------         ENDPROC       _PRINTSTRING4
  -------         PROC          UART1_INT
  C:39C1H         LINE#         325
  C:39D0H         LINE#         327
  C:39D3H         LINE#         328
  C:39D3H         LINE#         329
  C:39D5H         LINE#         330
  C:39DBH         LINE#         331
  C:39DBH         LINE#         332
  C:39E6H         LINE#         333
  C:39FAH         LINE#         334
  C:3A00H         LINE#         335
  C:3A00H         LINE#         336
  C:3A00H         LINE#         338
  C:3A03H         LINE#         339
  C:3A03H         LINE#         340
  C:3A05H         LINE#         341
  C:3A12H         LINE#         342
  C:3A12H         LINE#         343
  C:3A1FH         LINE#         344
  C:3A2CH         LINE#         345
  C:3A2EH         LINE#         346
  C:3A33H         LINE#         347
  C:3A33H         LINE#         348
  -------         ENDPROC       UART1_INT
  -------         PROC          UART2_INT
  C:3832H         LINE#         351
  C:3841H         LINE#         353
  C:3846H         LINE#         354
  C:3846H         LINE#         355
  C:3849H         LINE#         356
  C:384FH         LINE#         357
  C:384FH         LINE#         358
  C:385AH         LINE#         359
  C:386EH         LINE#         360
  C:3874H         LINE#         361
  C:3874H         LINE#         362
  C:3874H         LINE#         364
  C:3879H         LINE#         365
  C:3879H         LINE#         366
  C:387CH         LINE#         367
  C:3889H         LINE#         368
  C:3889H         LINE#         369
  C:3896H         LINE#         370
  C:38A3H         LINE#         371
  C:38A5H         LINE#         372
  C:38AAH         LINE#         373
  C:38AAH         LINE#         375
  -------         ENDPROC       UART2_INT
  -------         PROC          UART3_INT
  C:38B7H         LINE#         379
  C:38C6H         LINE#         381
  C:38CBH         LINE#         382
  C:38CBH         LINE#         383
  C:38CEH         LINE#         384
  C:38D4H         LINE#         385
BL51 BANKED LINKER/LOCATER V6.00                                                      07/18/2017  19:52:09  PAGE 80


  C:38D4H         LINE#         386
  C:38DFH         LINE#         387
  C:38F3H         LINE#         388
  C:38F9H         LINE#         389
  C:38F9H         LINE#         390
  C:38F9H         LINE#         392
  C:38FEH         LINE#         393
  C:38FEH         LINE#         394
  C:3901H         LINE#         395
  C:390EH         LINE#         396
  C:390EH         LINE#         397
  C:391BH         LINE#         398
  C:3928H         LINE#         399
  C:392AH         LINE#         400
  C:392FH         LINE#         401
  C:392FH         LINE#         403
  -------         ENDPROC       UART3_INT
  -------         PROC          UART4_INT
  C:393CH         LINE#         407
  C:394BH         LINE#         409
  C:3950H         LINE#         410
  C:3950H         LINE#         411
  C:3953H         LINE#         412
  C:3959H         LINE#         413
  C:3959H         LINE#         414
  C:3964H         LINE#         415
  C:3978H         LINE#         416
  C:397EH         LINE#         417
  C:397EH         LINE#         418
  C:397EH         LINE#         420
  C:3983H         LINE#         421
  C:3983H         LINE#         422
  C:3986H         LINE#         423
  C:3993H         LINE#         424
  C:3993H         LINE#         425
  C:39A0H         LINE#         426
  C:39ADH         LINE#         427
  C:39AFH         LINE#         428
  C:39B4H         LINE#         429
  C:39B4H         LINE#         431
  -------         ENDPROC       UART4_INT
  -------         ENDMOD        USART1

  -------         MODULE        STC15_EEPROM
  C:0000H         SYMBOL        _ICE_DUMMY_
  D:0080H         PUBLIC        P0
  D:0090H         PUBLIC        P1
  D:00A0H         PUBLIC        P2
  D:00B0H         PUBLIC        P3
  C:4828H         PUBLIC        DisableEEPROM
  D:00C0H         PUBLIC        P4
  D:00C8H         PUBLIC        P5
  D:00C6H         PUBLIC        ISP_TRIG
  B:00A8H.7       PUBLIC        EA
  D:00E8H         PUBLIC        P6
  D:00F8H         PUBLIC        P7
  D:00A8H         PUBLIC        IE
BL51 BANKED LINKER/LOCATER V6.00                                                      07/18/2017  19:52:09  PAGE 81


  C:4317H         PUBLIC        _EEPROM_SectorErase
  C:3EC4H         PUBLIC        _EEPROM_read_n
  D:00B8H         PUBLIC        IP
  D:00C5H         PUBLIC        ISP_CMD
  D:00D8H         PUBLIC        CCON
  C:3F03H         PUBLIC        _EEPROM_write_n
  D:00C3H         PUBLIC        ISP_ADDRH
  D:0098H         PUBLIC        SCON
  D:0088H         PUBLIC        TCON
  D:00C4H         PUBLIC        ISP_ADDRL
  D:00F0H         PUBLIC        B
  D:00E0H         PUBLIC        ACC
  D:00C7H         PUBLIC        ISP_CONTR
  D:00C2H         PUBLIC        ISP_DATA
  D:00D0H         PUBLIC        PSW
  -------         PROC          DISABLEEEPROM
  C:4828H         LINE#         30
  C:4828H         LINE#         31
  C:4828H         LINE#         32
  C:482BH         LINE#         33
  C:482DH         LINE#         34
  C:482FH         LINE#         35
  C:4832H         LINE#         36
  C:4835H         LINE#         37
  -------         ENDPROC       DISABLEEEPROM
  -------         PROC          _EEPROM_READ_N
  D:0004H         SYMBOL        EE_address
  D:0001H         SYMBOL        DataAddress
  X:04DDH         SYMBOL        number
  C:3EC4H         LINE#         49
  C:3EC8H         LINE#         50
  C:3EC8H         LINE#         51
  C:3ECAH         LINE#         52
  C:3ECDH         LINE#         53
  C:3ED0H         LINE#         55
  C:3ED0H         LINE#         56
  C:3ED3H         LINE#         57
  C:3ED7H         LINE#         58
  C:3EDDH         LINE#         61
  C:3EDEH         LINE#         62
  C:3EE3H         LINE#         63
  C:3EE8H         LINE#         64
  C:3EEFH         LINE#         65
  C:3EFDH         LINE#         67
  C:3F00H         LINE#         68
  C:3F02H         LINE#         69
  -------         ENDPROC       _EEPROM_READ_N
  -------         PROC          _EEPROM_SECTORERASE
  D:0004H         SYMBOL        EE_address
  C:4317H         LINE#         80
  C:431BH         LINE#         81
  C:431BH         LINE#         82
  C:431DH         LINE#         85
  C:4320H         LINE#         86
  C:4324H         LINE#         87
  C:4327H         LINE#         88
  C:432AH         LINE#         89
BL51 BANKED LINKER/LOCATER V6.00                                                      07/18/2017  19:52:09  PAGE 82


  C:4330H         LINE#         90
  C:4331H         LINE#         91
  C:4334H         LINE#         92
  C:4336H         LINE#         93
  -------         ENDPROC       _EEPROM_SECTORERASE
  -------         PROC          _EEPROM_WRITE_N
  D:0004H         SYMBOL        EE_address
  D:0001H         SYMBOL        DataAddress
  X:04E4H         SYMBOL        number
  C:3F03H         LINE#         104
  C:3F07H         LINE#         105
  C:3F07H         LINE#         106
  C:3F09H         LINE#         108
  C:3F0CH         LINE#         109
  C:3F0FH         LINE#         111
  C:3F0FH         LINE#         112
  C:3F12H         LINE#         113
  C:3F16H         LINE#         114
  C:3F1BH         LINE#         115
  C:3F21H         LINE#         116
  C:3F22H         LINE#         117
  C:3F27H         LINE#         118
  C:3F2EH         LINE#         119
  C:3F3CH         LINE#         121
  C:3F3FH         LINE#         122
  C:3F41H         LINE#         123
  -------         ENDPROC       _EEPROM_WRITE_N
  -------         ENDMOD        STC15_EEPROM

  -------         MODULE        ?C?FPADD
  C:0807H         PUBLIC        ?C?FPADD
  C:0803H         PUBLIC        ?C?FPSUB
  -------         ENDMOD        ?C?FPADD

  -------         MODULE        ?C?FPMUL
  C:08F8H         PUBLIC        ?C?FPMUL
  -------         ENDMOD        ?C?FPMUL

  -------         MODULE        ?C?FPDIV
  C:0A01H         PUBLIC        ?C?FPDIV
  -------         ENDMOD        ?C?FPDIV

  -------         MODULE        ?C?FPCMP
  C:0AA0H         PUBLIC        ?C?FPCMP
  C:0A9EH         PUBLIC        ?C?FPCMP3
  -------         ENDMOD        ?C?FPCMP

  -------         MODULE        ?C?FCAST
  C:0B15H         PUBLIC        ?C?FCASTC
  C:0B10H         PUBLIC        ?C?FCASTI
  C:0B0BH         PUBLIC        ?C?FCASTL
  -------         ENDMOD        ?C?FCAST

  -------         MODULE        ?C?CASTF
  C:0B49H         PUBLIC        ?C?CASTF
  -------         ENDMOD        ?C?CASTF

BL51 BANKED LINKER/LOCATER V6.00                                                      07/18/2017  19:52:09  PAGE 83


  -------         MODULE        ?C?CLDPTR
  C:0BCAH         PUBLIC        ?C?CLDPTR
  -------         ENDMOD        ?C?CLDPTR

  -------         MODULE        ?C?CLDOPTR
  C:0BE3H         PUBLIC        ?C?CLDOPTR
  -------         ENDMOD        ?C?CLDOPTR

  -------         MODULE        ?C?CSTPTR
  C:0C10H         PUBLIC        ?C?CSTPTR
  -------         ENDMOD        ?C?CSTPTR

  -------         MODULE        ?C?CSTOPTR
  C:0C22H         PUBLIC        ?C?CSTOPTR
  -------         ENDMOD        ?C?CSTOPTR

  -------         MODULE        ?C?IMUL
  C:0C44H         PUBLIC        ?C?IMUL
  -------         ENDMOD        ?C?IMUL

  -------         MODULE        ?C?UIDIV
  C:0C56H         PUBLIC        ?C?UIDIV
  -------         ENDMOD        ?C?UIDIV

  -------         MODULE        ?C?IILDX
  C:0CABH         PUBLIC        ?C?IILDX
  -------         ENDMOD        ?C?IILDX

  -------         MODULE        ?C?ILDOPTR
  C:0CC1H         PUBLIC        ?C?ILDOPTR
  -------         ENDMOD        ?C?ILDOPTR

  -------         MODULE        ?C?LMUL
  C:0CF9H         PUBLIC        ?C?LMUL
  -------         ENDMOD        ?C?LMUL

  -------         MODULE        ?C?ULDIV
  C:0D84H         PUBLIC        ?C?ULDIV
  -------         ENDMOD        ?C?ULDIV

  -------         MODULE        ?C?SLDIV
  C:3E80H         PUBLIC        ?C?SLDIV
  -------         ENDMOD        ?C?SLDIV

  -------         MODULE        ?C?LNEG
  C:0E16H         PUBLIC        ?C?LNEG
  -------         ENDMOD        ?C?LNEG

  -------         MODULE        ?C?ULCMP
  C:0E24H         PUBLIC        ?C?ULCMP
  -------         ENDMOD        ?C?ULCMP

  -------         MODULE        ?C?ULSHR
  C:0E35H         PUBLIC        ?C?ULSHR
  -------         ENDMOD        ?C?ULSHR

  -------         MODULE        ?C?LLDOPTR0
BL51 BANKED LINKER/LOCATER V6.00                                                      07/18/2017  19:52:09  PAGE 84


  C:0E48H         PUBLIC        ?C?LLDOPTR0
  -------         ENDMOD        ?C?LLDOPTR0

  -------         MODULE        ?C?LLDIXDATA
  C:0E81H         PUBLIC        ?C?LLDIXDATA
  C:0E78H         PUBLIC        ?C?LLDIXDATA1
  C:0E7AH         PUBLIC        ?C?LLDIXDATA8
  -------         ENDMOD        ?C?LLDIXDATA

  -------         MODULE        ?C?LSTXDATA
  C:0EADH         PUBLIC        ?C?LSTXDATA
  -------         ENDMOD        ?C?LSTXDATA

  -------         MODULE        ?C?LSTKXDATA
  C:0EB9H         PUBLIC        ?C?LSTKXDATA
  -------         ENDMOD        ?C?LSTKXDATA

  -------         MODULE        ABS
  C:4842H         PUBLIC        _ABS
  -------         ENDMOD        ABS

  -------         MODULE        ?C?LLDIDATA0
  C:0EEAH         PUBLIC        ?C?LLDIDATA0
  -------         ENDMOD        ?C?LLDIDATA0

  -------         MODULE        ?C?LLDXDATA0
  C:0EF7H         PUBLIC        ?C?LLDXDATA0
  -------         ENDMOD        ?C?LLDXDATA0

  -------         MODULE        ?C?LLDPDATA0
  C:0F03H         PUBLIC        ?C?LLDPDATA0
  -------         ENDMOD        ?C?LLDPDATA0

  -------         MODULE        ?C?LLDCODE0
  C:0F10H         PUBLIC        ?C?LLDCODE0
  -------         ENDMOD        ?C?LLDCODE0

*** WARNING L16: UNCALLED SEGMENT, IGNORED FOR OVERLAY PROCESS
    SEGMENT: ?PR?MODE1?MODE

*** WARNING L16: UNCALLED SEGMENT, IGNORED FOR OVERLAY PROCESS
    SEGMENT: ?PR?MODE2?MODE

*** WARNING L16: UNCALLED SEGMENT, IGNORED FOR OVERLAY PROCESS
    SEGMENT: ?PR?MODE3?MODE

*** WARNING L16: UNCALLED SEGMENT, IGNORED FOR OVERLAY PROCESS
    SEGMENT: ?PR?MODE4?MODE

*** WARNING L16: UNCALLED SEGMENT, IGNORED FOR OVERLAY PROCESS
    SEGMENT: ?PR?MODELAUNCHER?MODE

*** WARNING L16: UNCALLED SEGMENT, IGNORED FOR OVERLAY PROCESS
    SEGMENT: ?PR?_CLOSEPID?PID

*** WARNING L16: UNCALLED SEGMENT, IGNORED FOR OVERLAY PROCESS
    SEGMENT: ?PR?_PID_SETKI?PID
BL51 BANKED LINKER/LOCATER V6.00                                                      07/18/2017  19:52:09  PAGE 85



*** WARNING L16: UNCALLED SEGMENT, IGNORED FOR OVERLAY PROCESS
    SEGMENT: ?PR?_PID_SETKP?PID

*** WARNING L16: UNCALLED SEGMENT, IGNORED FOR OVERLAY PROCESS
    SEGMENT: ?PR?_PID_SETKD?PID

*** WARNING L16: UNCALLED SEGMENT, IGNORED FOR OVERLAY PROCESS
    SEGMENT: ?PR?_PID_GETERRLAST?PID

*** WARNING L16: UNCALLED SEGMENT, IGNORED FOR OVERLAY PROCESS
    SEGMENT: ?PR?_PID_GETKP?PID

*** WARNING L16: UNCALLED SEGMENT, IGNORED FOR OVERLAY PROCESS
    SEGMENT: ?PR?_PID_GETKI?PID

*** WARNING L16: UNCALLED SEGMENT, IGNORED FOR OVERLAY PROCESS
    SEGMENT: ?PR?_PID_GETKD?PID

*** WARNING L16: UNCALLED SEGMENT, IGNORED FOR OVERLAY PROCESS
    SEGMENT: ?PR?_PID_GETINTEGRAL?PID

*** WARNING L16: UNCALLED SEGMENT, IGNORED FOR OVERLAY PROCESS
    SEGMENT: ?PR?_PID_GETSTATE?PID

*** WARNING L16: UNCALLED SEGMENT, IGNORED FOR OVERLAY PROCESS
    SEGMENT: ?PR?_WRITEDATA?STORAGE

*** WARNING L16: UNCALLED SEGMENT, IGNORED FOR OVERLAY PROCESS
    SEGMENT: ?PR?_GETBUTTONSTATE?BUTTON

*** WARNING L16: UNCALLED SEGMENT, IGNORED FOR OVERLAY PROCESS
    SEGMENT: ?PR?BUTTONSCAN?BUTTON

*** WARNING L16: UNCALLED SEGMENT, IGNORED FOR OVERLAY PROCESS
    SEGMENT: ?PR?BOARD_LED_INIT?LED

*** WARNING L16: UNCALLED SEGMENT, IGNORED FOR OVERLAY PROCESS
    SEGMENT: ?PR?_BLINK?LED

*** WARNING L16: UNCALLED SEGMENT, IGNORED FOR OVERLAY PROCESS
    SEGMENT: ?PR?GETBOARD_LED_STATE?LED

*** WARNING L16: UNCALLED SEGMENT, IGNORED FOR OVERLAY PROCESS
    SEGMENT: ?PR?_BOARD_LED_PWM?LED

*** WARNING L16: UNCALLED SEGMENT, IGNORED FOR OVERLAY PROCESS
    SEGMENT: ?PR?_GETDC_MOTORSTATE?MOTOR

*** WARNING L16: UNCALLED SEGMENT, IGNORED FOR OVERLAY PROCESS
    SEGMENT: ?PR?_INIT_STR_MOTOR?SERVO

*** WARNING L16: UNCALLED SEGMENT, IGNORED FOR OVERLAY PROCESS
    SEGMENT: ?PR?_SET_STR_ANGLE?SERVO

*** WARNING L16: UNCALLED SEGMENT, IGNORED FOR OVERLAY PROCESS
    SEGMENT: ?PR?_READ_STR_ANGLE?SERVO
BL51 BANKED LINKER/LOCATER V6.00                                                      07/18/2017  19:52:09  PAGE 86



*** WARNING L16: UNCALLED SEGMENT, IGNORED FOR OVERLAY PROCESS
    SEGMENT: ?PR?_OPEN_STR?SERVO

*** WARNING L16: UNCALLED SEGMENT, IGNORED FOR OVERLAY PROCESS
    SEGMENT: ?PR?_CLOSE_STR?SERVO

*** WARNING L16: UNCALLED SEGMENT, IGNORED FOR OVERLAY PROCESS
    SEGMENT: ?PR?_SETSTEPMOTORWITHROUND?STEP_MOTOR

*** WARNING L16: UNCALLED SEGMENT, IGNORED FOR OVERLAY PROCESS
    SEGMENT: ?PR?_GETSTEPMOTORSTATE?STEP_MOTOR

*** WARNING L16: UNCALLED SEGMENT, IGNORED FOR OVERLAY PROCESS
    SEGMENT: ?PR?_SETSTEPMOTORDIVERSION?STEP_MOTOR

*** WARNING L16: UNCALLED SEGMENT, IGNORED FOR OVERLAY PROCESS
    SEGMENT: ?PR?_CLOSE_STEPMOTOR?STEP_MOTOR

*** WARNING L16: UNCALLED SEGMENT, IGNORED FOR OVERLAY PROCESS
    SEGMENT: ?PR?_OPEN_STEPMOTOR?STEP_MOTOR

*** WARNING L16: UNCALLED SEGMENT, IGNORED FOR OVERLAY PROCESS
    SEGMENT: ?PR?_FREESTEPMOTOR?STEP_MOTOR

*** WARNING L16: UNCALLED SEGMENT, IGNORED FOR OVERLAY PROCESS
    SEGMENT: ?PR?_LOCKSTEPMOTOR?STEP_MOTOR

*** WARNING L16: UNCALLED SEGMENT, IGNORED FOR OVERLAY PROCESS
    SEGMENT: ?PR?_STEPMOTOR_INIT?STEP_MOTOR

*** WARNING L16: UNCALLED SEGMENT, IGNORED FOR OVERLAY PROCESS
    SEGMENT: ?PR?_SETRELAY?RELAY

*** WARNING L16: UNCALLED SEGMENT, IGNORED FOR OVERLAY PROCESS
    SEGMENT: ?PR?_UNSETRELAY?RELAY

*** WARNING L16: UNCALLED SEGMENT, IGNORED FOR OVERLAY PROCESS
    SEGMENT: ?PR?RELAY_INIT?RELAY

*** WARNING L16: UNCALLED SEGMENT, IGNORED FOR OVERLAY PROCESS
    SEGMENT: ?PR?_LCD1602_WRITE_WORD?LCD1602

*** WARNING L16: UNCALLED SEGMENT, IGNORED FOR OVERLAY PROCESS
    SEGMENT: ?PR?LCD1602_INIT?LCD1602

*** WARNING L16: UNCALLED SEGMENT, IGNORED FOR OVERLAY PROCESS
    SEGMENT: ?PR?_HC595_INIT?74HC595

*** WARNING L16: UNCALLED SEGMENT, IGNORED FOR OVERLAY PROCESS
    SEGMENT: ?PR?_HC595SENDDATA?74HC595

*** WARNING L16: UNCALLED SEGMENT, IGNORED FOR OVERLAY PROCESS
    SEGMENT: ?PR?_GETPULSERSTATE?FIXEDPULSER

*** WARNING L16: UNCALLED SEGMENT, IGNORED FOR OVERLAY PROCESS
    SEGMENT: ?PR?_ADC_POWERCONTROL?ADC
BL51 BANKED LINKER/LOCATER V6.00                                                      07/18/2017  19:52:09  PAGE 87



*** WARNING L16: UNCALLED SEGMENT, IGNORED FOR OVERLAY PROCESS
    SEGMENT: ?PR?_SETPINSTATE?GPIO

*** WARNING L16: UNCALLED SEGMENT, IGNORED FOR OVERLAY PROCESS
    SEGMENT: ?PR?_PWMN_UPDATE?PCA

*** WARNING L16: UNCALLED SEGMENT, IGNORED FOR OVERLAY PROCESS
    SEGMENT: ?PR?_PCA_INIT?PCA

*** WARNING L16: UNCALLED SEGMENT, IGNORED FOR OVERLAY PROCESS
    SEGMENT: ?PR?_PWMOUTPUT?PCA

*** WARNING L16: UNCALLED SEGMENT, IGNORED FOR OVERLAY PROCESS
    SEGMENT: ?PR?_GET_PWM_PERIOD?STC15_PWM

*** WARNING L16: UNCALLED SEGMENT, IGNORED FOR OVERLAY PROCESS
    SEGMENT: ?PR?_GET_PWM_N_DUTY?STC15_PWM

*** WARNING L16: UNCALLED SEGMENT, IGNORED FOR OVERLAY PROCESS
    SEGMENT: ?PR?_GETPWM_DIV?STC15_PWM

*** WARNING L16: UNCALLED SEGMENT, IGNORED FOR OVERLAY PROCESS
    SEGMENT: ?PR?OPEN_PWM_ALL?STC15_PWM

*** WARNING L16: UNCALLED SEGMENT, IGNORED FOR OVERLAY PROCESS
    SEGMENT: ?PR?CLOSE_PWM_ALL?STC15_PWM

*** WARNING L16: UNCALLED SEGMENT, IGNORED FOR OVERLAY PROCESS
    SEGMENT: ?PR?_GET_PWM_N_STATE?STC15_PWM

*** WARNING L16: UNCALLED SEGMENT, IGNORED FOR OVERLAY PROCESS
    SEGMENT: ?PR?TIMERINIT?TIMER

*** WARNING L16: UNCALLED SEGMENT, IGNORED FOR OVERLAY PROCESS
    SEGMENT: ?PR?_GETTIMEROUT?TIMER

*** WARNING L16: UNCALLED SEGMENT, IGNORED FOR OVERLAY PROCESS
    SEGMENT: ?PR?_SETTIMERHERTZ?TIMER

*** WARNING L16: UNCALLED SEGMENT, IGNORED FOR OVERLAY PROCESS
    SEGMENT: ?PR?_GETTIMERHERTZ?TIMER

*** WARNING L16: UNCALLED SEGMENT, IGNORED FOR OVERLAY PROCESS
    SEGMENT: ?PR?_ONRESTARTTIMER?TIMER

*** WARNING L16: UNCALLED SEGMENT, IGNORED FOR OVERLAY PROCESS
    SEGMENT: ?PR?GETMICROS?TIMER

*** WARNING L16: UNCALLED SEGMENT, IGNORED FOR OVERLAY PROCESS
    SEGMENT: ?PR?GETMILLIS?TIMER

*** WARNING L16: UNCALLED SEGMENT, IGNORED FOR OVERLAY PROCESS
    SEGMENT: ?PR?GETSECONDS?TIMER

*** WARNING L16: UNCALLED SEGMENT, IGNORED FOR OVERLAY PROCESS
    SEGMENT: ?PR?GETMINUTES?TIMER
BL51 BANKED LINKER/LOCATER V6.00                                                      07/18/2017  19:52:09  PAGE 88



*** WARNING L16: UNCALLED SEGMENT, IGNORED FOR OVERLAY PROCESS
    SEGMENT: ?PR?GETHOURS?TIMER

*** WARNING L16: UNCALLED SEGMENT, IGNORED FOR OVERLAY PROCESS
    SEGMENT: ?PR?GETDAYS?TIMER

*** WARNING L16: UNCALLED SEGMENT, IGNORED FOR OVERLAY PROCESS
    SEGMENT: ?PR?_PRINTSTRING2?USART1

*** WARNING L16: UNCALLED SEGMENT, IGNORED FOR OVERLAY PROCESS
    SEGMENT: ?PR?_PRINTSTRING3?USART1

*** WARNING L16: UNCALLED SEGMENT, IGNORED FOR OVERLAY PROCESS
    SEGMENT: ?PR?_PRINTSTRING4?USART1

*** WARNING L16: UNCALLED SEGMENT, IGNORED FOR OVERLAY PROCESS
    SEGMENT: ?PR?_EEPROM_READ_N?STC15_EEPROM

*** WARNING L16: UNCALLED SEGMENT, IGNORED FOR OVERLAY PROCESS
    SEGMENT: ?PR?_EEPROM_SECTORERASE?STC15_EEPROM

*** WARNING L16: UNCALLED SEGMENT, IGNORED FOR OVERLAY PROCESS
    SEGMENT: ?PR?_EEPROM_WRITE_N?STC15_EEPROM

*** WARNING L15: MULTIPLE CALL TO SEGMENT
    SEGMENT: ?PR?GETANGLE?ANGLE
    CALLER1: ?PR?TASK_ANGLE?ABSTASK
    CALLER2: ?PR?DEBUG?ABSTASK

*** WARNING L15: MULTIPLE CALL TO SEGMENT
    SEGMENT: ?PR?_FILTER?FILTER
    CALLER1: ?PR?TASK_ANGLE?ABSTASK
    CALLER2: ?PR?DEBUG?ABSTASK

******************************************************************************
* RESTRICTED VERSION WITH FFFFH BYTE CODE SIZE LIMIT; USED: 3770H BYTE (21%) *
******************************************************************************

Program Size: data=40.7 xdata=1318 code=16625
LINK/LOCATE RUN COMPLETE.  74 WARNING(S),  0 ERROR(S)
